
bgame:     file format elf64-x86-64


Disassembly of section .init:

0000000000002000 <_init>:
    2000:	f3 0f 1e fa          	endbr64 
    2004:	48 83 ec 08          	sub    $0x8,%rsp
    2008:	48 8b 05 d9 bf 00 00 	mov    0xbfd9(%rip),%rax        # dfe8 <__gmon_start__>
    200f:	48 85 c0             	test   %rax,%rax
    2012:	74 02                	je     2016 <_init+0x16>
    2014:	ff d0                	callq  *%rax
    2016:	48 83 c4 08          	add    $0x8,%rsp
    201a:	c3                   	retq   

Disassembly of section .plt:

0000000000002020 <.plt>:
    2020:	ff 35 e2 bd 00 00    	pushq  0xbde2(%rip)        # de08 <_GLOBAL_OFFSET_TABLE_+0x8>
    2026:	f2 ff 25 e3 bd 00 00 	bnd jmpq *0xbde3(%rip)        # de10 <_GLOBAL_OFFSET_TABLE_+0x10>
    202d:	0f 1f 00             	nopl   (%rax)
    2030:	f3 0f 1e fa          	endbr64 
    2034:	68 00 00 00 00       	pushq  $0x0
    2039:	f2 e9 e1 ff ff ff    	bnd jmpq 2020 <.plt>
    203f:	90                   	nop
    2040:	f3 0f 1e fa          	endbr64 
    2044:	68 01 00 00 00       	pushq  $0x1
    2049:	f2 e9 d1 ff ff ff    	bnd jmpq 2020 <.plt>
    204f:	90                   	nop
    2050:	f3 0f 1e fa          	endbr64 
    2054:	68 02 00 00 00       	pushq  $0x2
    2059:	f2 e9 c1 ff ff ff    	bnd jmpq 2020 <.plt>
    205f:	90                   	nop
    2060:	f3 0f 1e fa          	endbr64 
    2064:	68 03 00 00 00       	pushq  $0x3
    2069:	f2 e9 b1 ff ff ff    	bnd jmpq 2020 <.plt>
    206f:	90                   	nop
    2070:	f3 0f 1e fa          	endbr64 
    2074:	68 04 00 00 00       	pushq  $0x4
    2079:	f2 e9 a1 ff ff ff    	bnd jmpq 2020 <.plt>
    207f:	90                   	nop
    2080:	f3 0f 1e fa          	endbr64 
    2084:	68 05 00 00 00       	pushq  $0x5
    2089:	f2 e9 91 ff ff ff    	bnd jmpq 2020 <.plt>
    208f:	90                   	nop
    2090:	f3 0f 1e fa          	endbr64 
    2094:	68 06 00 00 00       	pushq  $0x6
    2099:	f2 e9 81 ff ff ff    	bnd jmpq 2020 <.plt>
    209f:	90                   	nop
    20a0:	f3 0f 1e fa          	endbr64 
    20a4:	68 07 00 00 00       	pushq  $0x7
    20a9:	f2 e9 71 ff ff ff    	bnd jmpq 2020 <.plt>
    20af:	90                   	nop
    20b0:	f3 0f 1e fa          	endbr64 
    20b4:	68 08 00 00 00       	pushq  $0x8
    20b9:	f2 e9 61 ff ff ff    	bnd jmpq 2020 <.plt>
    20bf:	90                   	nop
    20c0:	f3 0f 1e fa          	endbr64 
    20c4:	68 09 00 00 00       	pushq  $0x9
    20c9:	f2 e9 51 ff ff ff    	bnd jmpq 2020 <.plt>
    20cf:	90                   	nop
    20d0:	f3 0f 1e fa          	endbr64 
    20d4:	68 0a 00 00 00       	pushq  $0xa
    20d9:	f2 e9 41 ff ff ff    	bnd jmpq 2020 <.plt>
    20df:	90                   	nop
    20e0:	f3 0f 1e fa          	endbr64 
    20e4:	68 0b 00 00 00       	pushq  $0xb
    20e9:	f2 e9 31 ff ff ff    	bnd jmpq 2020 <.plt>
    20ef:	90                   	nop
    20f0:	f3 0f 1e fa          	endbr64 
    20f4:	68 0c 00 00 00       	pushq  $0xc
    20f9:	f2 e9 21 ff ff ff    	bnd jmpq 2020 <.plt>
    20ff:	90                   	nop
    2100:	f3 0f 1e fa          	endbr64 
    2104:	68 0d 00 00 00       	pushq  $0xd
    2109:	f2 e9 11 ff ff ff    	bnd jmpq 2020 <.plt>
    210f:	90                   	nop
    2110:	f3 0f 1e fa          	endbr64 
    2114:	68 0e 00 00 00       	pushq  $0xe
    2119:	f2 e9 01 ff ff ff    	bnd jmpq 2020 <.plt>
    211f:	90                   	nop
    2120:	f3 0f 1e fa          	endbr64 
    2124:	68 0f 00 00 00       	pushq  $0xf
    2129:	f2 e9 f1 fe ff ff    	bnd jmpq 2020 <.plt>
    212f:	90                   	nop
    2130:	f3 0f 1e fa          	endbr64 
    2134:	68 10 00 00 00       	pushq  $0x10
    2139:	f2 e9 e1 fe ff ff    	bnd jmpq 2020 <.plt>
    213f:	90                   	nop
    2140:	f3 0f 1e fa          	endbr64 
    2144:	68 11 00 00 00       	pushq  $0x11
    2149:	f2 e9 d1 fe ff ff    	bnd jmpq 2020 <.plt>
    214f:	90                   	nop
    2150:	f3 0f 1e fa          	endbr64 
    2154:	68 12 00 00 00       	pushq  $0x12
    2159:	f2 e9 c1 fe ff ff    	bnd jmpq 2020 <.plt>
    215f:	90                   	nop
    2160:	f3 0f 1e fa          	endbr64 
    2164:	68 13 00 00 00       	pushq  $0x13
    2169:	f2 e9 b1 fe ff ff    	bnd jmpq 2020 <.plt>
    216f:	90                   	nop
    2170:	f3 0f 1e fa          	endbr64 
    2174:	68 14 00 00 00       	pushq  $0x14
    2179:	f2 e9 a1 fe ff ff    	bnd jmpq 2020 <.plt>
    217f:	90                   	nop
    2180:	f3 0f 1e fa          	endbr64 
    2184:	68 15 00 00 00       	pushq  $0x15
    2189:	f2 e9 91 fe ff ff    	bnd jmpq 2020 <.plt>
    218f:	90                   	nop
    2190:	f3 0f 1e fa          	endbr64 
    2194:	68 16 00 00 00       	pushq  $0x16
    2199:	f2 e9 81 fe ff ff    	bnd jmpq 2020 <.plt>
    219f:	90                   	nop
    21a0:	f3 0f 1e fa          	endbr64 
    21a4:	68 17 00 00 00       	pushq  $0x17
    21a9:	f2 e9 71 fe ff ff    	bnd jmpq 2020 <.plt>
    21af:	90                   	nop
    21b0:	f3 0f 1e fa          	endbr64 
    21b4:	68 18 00 00 00       	pushq  $0x18
    21b9:	f2 e9 61 fe ff ff    	bnd jmpq 2020 <.plt>
    21bf:	90                   	nop
    21c0:	f3 0f 1e fa          	endbr64 
    21c4:	68 19 00 00 00       	pushq  $0x19
    21c9:	f2 e9 51 fe ff ff    	bnd jmpq 2020 <.plt>
    21cf:	90                   	nop
    21d0:	f3 0f 1e fa          	endbr64 
    21d4:	68 1a 00 00 00       	pushq  $0x1a
    21d9:	f2 e9 41 fe ff ff    	bnd jmpq 2020 <.plt>
    21df:	90                   	nop
    21e0:	f3 0f 1e fa          	endbr64 
    21e4:	68 1b 00 00 00       	pushq  $0x1b
    21e9:	f2 e9 31 fe ff ff    	bnd jmpq 2020 <.plt>
    21ef:	90                   	nop
    21f0:	f3 0f 1e fa          	endbr64 
    21f4:	68 1c 00 00 00       	pushq  $0x1c
    21f9:	f2 e9 21 fe ff ff    	bnd jmpq 2020 <.plt>
    21ff:	90                   	nop
    2200:	f3 0f 1e fa          	endbr64 
    2204:	68 1d 00 00 00       	pushq  $0x1d
    2209:	f2 e9 11 fe ff ff    	bnd jmpq 2020 <.plt>
    220f:	90                   	nop
    2210:	f3 0f 1e fa          	endbr64 
    2214:	68 1e 00 00 00       	pushq  $0x1e
    2219:	f2 e9 01 fe ff ff    	bnd jmpq 2020 <.plt>
    221f:	90                   	nop
    2220:	f3 0f 1e fa          	endbr64 
    2224:	68 1f 00 00 00       	pushq  $0x1f
    2229:	f2 e9 f1 fd ff ff    	bnd jmpq 2020 <.plt>
    222f:	90                   	nop
    2230:	f3 0f 1e fa          	endbr64 
    2234:	68 20 00 00 00       	pushq  $0x20
    2239:	f2 e9 e1 fd ff ff    	bnd jmpq 2020 <.plt>
    223f:	90                   	nop
    2240:	f3 0f 1e fa          	endbr64 
    2244:	68 21 00 00 00       	pushq  $0x21
    2249:	f2 e9 d1 fd ff ff    	bnd jmpq 2020 <.plt>
    224f:	90                   	nop
    2250:	f3 0f 1e fa          	endbr64 
    2254:	68 22 00 00 00       	pushq  $0x22
    2259:	f2 e9 c1 fd ff ff    	bnd jmpq 2020 <.plt>
    225f:	90                   	nop
    2260:	f3 0f 1e fa          	endbr64 
    2264:	68 23 00 00 00       	pushq  $0x23
    2269:	f2 e9 b1 fd ff ff    	bnd jmpq 2020 <.plt>
    226f:	90                   	nop
    2270:	f3 0f 1e fa          	endbr64 
    2274:	68 24 00 00 00       	pushq  $0x24
    2279:	f2 e9 a1 fd ff ff    	bnd jmpq 2020 <.plt>
    227f:	90                   	nop
    2280:	f3 0f 1e fa          	endbr64 
    2284:	68 25 00 00 00       	pushq  $0x25
    2289:	f2 e9 91 fd ff ff    	bnd jmpq 2020 <.plt>
    228f:	90                   	nop
    2290:	f3 0f 1e fa          	endbr64 
    2294:	68 26 00 00 00       	pushq  $0x26
    2299:	f2 e9 81 fd ff ff    	bnd jmpq 2020 <.plt>
    229f:	90                   	nop
    22a0:	f3 0f 1e fa          	endbr64 
    22a4:	68 27 00 00 00       	pushq  $0x27
    22a9:	f2 e9 71 fd ff ff    	bnd jmpq 2020 <.plt>
    22af:	90                   	nop
    22b0:	f3 0f 1e fa          	endbr64 
    22b4:	68 28 00 00 00       	pushq  $0x28
    22b9:	f2 e9 61 fd ff ff    	bnd jmpq 2020 <.plt>
    22bf:	90                   	nop
    22c0:	f3 0f 1e fa          	endbr64 
    22c4:	68 29 00 00 00       	pushq  $0x29
    22c9:	f2 e9 51 fd ff ff    	bnd jmpq 2020 <.plt>
    22cf:	90                   	nop
    22d0:	f3 0f 1e fa          	endbr64 
    22d4:	68 2a 00 00 00       	pushq  $0x2a
    22d9:	f2 e9 41 fd ff ff    	bnd jmpq 2020 <.plt>
    22df:	90                   	nop
    22e0:	f3 0f 1e fa          	endbr64 
    22e4:	68 2b 00 00 00       	pushq  $0x2b
    22e9:	f2 e9 31 fd ff ff    	bnd jmpq 2020 <.plt>
    22ef:	90                   	nop
    22f0:	f3 0f 1e fa          	endbr64 
    22f4:	68 2c 00 00 00       	pushq  $0x2c
    22f9:	f2 e9 21 fd ff ff    	bnd jmpq 2020 <.plt>
    22ff:	90                   	nop
    2300:	f3 0f 1e fa          	endbr64 
    2304:	68 2d 00 00 00       	pushq  $0x2d
    2309:	f2 e9 11 fd ff ff    	bnd jmpq 2020 <.plt>
    230f:	90                   	nop
    2310:	f3 0f 1e fa          	endbr64 
    2314:	68 2e 00 00 00       	pushq  $0x2e
    2319:	f2 e9 01 fd ff ff    	bnd jmpq 2020 <.plt>
    231f:	90                   	nop
    2320:	f3 0f 1e fa          	endbr64 
    2324:	68 2f 00 00 00       	pushq  $0x2f
    2329:	f2 e9 f1 fc ff ff    	bnd jmpq 2020 <.plt>
    232f:	90                   	nop
    2330:	f3 0f 1e fa          	endbr64 
    2334:	68 30 00 00 00       	pushq  $0x30
    2339:	f2 e9 e1 fc ff ff    	bnd jmpq 2020 <.plt>
    233f:	90                   	nop
    2340:	f3 0f 1e fa          	endbr64 
    2344:	68 31 00 00 00       	pushq  $0x31
    2349:	f2 e9 d1 fc ff ff    	bnd jmpq 2020 <.plt>
    234f:	90                   	nop
    2350:	f3 0f 1e fa          	endbr64 
    2354:	68 32 00 00 00       	pushq  $0x32
    2359:	f2 e9 c1 fc ff ff    	bnd jmpq 2020 <.plt>
    235f:	90                   	nop
    2360:	f3 0f 1e fa          	endbr64 
    2364:	68 33 00 00 00       	pushq  $0x33
    2369:	f2 e9 b1 fc ff ff    	bnd jmpq 2020 <.plt>
    236f:	90                   	nop
    2370:	f3 0f 1e fa          	endbr64 
    2374:	68 34 00 00 00       	pushq  $0x34
    2379:	f2 e9 a1 fc ff ff    	bnd jmpq 2020 <.plt>
    237f:	90                   	nop
    2380:	f3 0f 1e fa          	endbr64 
    2384:	68 35 00 00 00       	pushq  $0x35
    2389:	f2 e9 91 fc ff ff    	bnd jmpq 2020 <.plt>
    238f:	90                   	nop

Disassembly of section .plt.got:

0000000000002390 <__cxa_finalize@plt>:
    2390:	f3 0f 1e fa          	endbr64 
    2394:	f2 ff 25 2d bc 00 00 	bnd jmpq *0xbc2d(%rip)        # dfc8 <__cxa_finalize@GLIBC_2.2.5>
    239b:	0f 1f 44 00 00       	nopl   0x0(%rax,%rax,1)

Disassembly of section .plt.sec:

00000000000023a0 <printf@plt>:
    23a0:	f3 0f 1e fa          	endbr64 
    23a4:	f2 ff 25 6d ba 00 00 	bnd jmpq *0xba6d(%rip)        # de18 <printf@GLIBC_2.2.5>
    23ab:	0f 1f 44 00 00       	nopl   0x0(%rax,%rax,1)

00000000000023b0 <_ZNSirsERj@plt>:
    23b0:	f3 0f 1e fa          	endbr64 
    23b4:	f2 ff 25 65 ba 00 00 	bnd jmpq *0xba65(%rip)        # de20 <_ZNSirsERj@GLIBCXX_3.4>
    23bb:	0f 1f 44 00 00       	nopl   0x0(%rax,%rax,1)

00000000000023c0 <_ZNSaIcED2Ev@plt>:
    23c0:	f3 0f 1e fa          	endbr64 
    23c4:	f2 ff 25 5d ba 00 00 	bnd jmpq *0xba5d(%rip)        # de28 <_ZNSaIcED2Ev@GLIBCXX_3.4>
    23cb:	0f 1f 44 00 00       	nopl   0x0(%rax,%rax,1)

00000000000023d0 <_ZSt7getlineIcSt11char_traitsIcESaIcEERSt13basic_istreamIT_T0_ES7_RNSt7__cxx1112basic_stringIS4_S5_T1_EE@plt>:
    23d0:	f3 0f 1e fa          	endbr64 
    23d4:	f2 ff 25 55 ba 00 00 	bnd jmpq *0xba55(%rip)        # de30 <_ZSt7getlineIcSt11char_traitsIcESaIcEERSt13basic_istreamIT_T0_ES7_RNSt7__cxx1112basic_stringIS4_S5_T1_EE@GLIBCXX_3.4.21>
    23db:	0f 1f 44 00 00       	nopl   0x0(%rax,%rax,1)

00000000000023e0 <_ZStrsIcSt11char_traitsIcEERSt13basic_istreamIT_T0_ES6_PS3_@plt>:
    23e0:	f3 0f 1e fa          	endbr64 
    23e4:	f2 ff 25 4d ba 00 00 	bnd jmpq *0xba4d(%rip)        # de38 <_ZStrsIcSt11char_traitsIcEERSt13basic_istreamIT_T0_ES6_PS3_@GLIBCXX_3.4>
    23eb:	0f 1f 44 00 00       	nopl   0x0(%rax,%rax,1)

00000000000023f0 <fork@plt>:
    23f0:	f3 0f 1e fa          	endbr64 
    23f4:	f2 ff 25 45 ba 00 00 	bnd jmpq *0xba45(%rip)        # de40 <fork@GLIBC_2.2.5>
    23fb:	0f 1f 44 00 00       	nopl   0x0(%rax,%rax,1)

0000000000002400 <_ZNSt7__cxx1112basic_stringIcSt11char_traitsIcESaIcEE13_S_copy_charsEPcS5_S5_@plt>:
    2400:	f3 0f 1e fa          	endbr64 
    2404:	f2 ff 25 3d ba 00 00 	bnd jmpq *0xba3d(%rip)        # de48 <_ZNSt7__cxx1112basic_stringIcSt11char_traitsIcESaIcEE13_S_copy_charsEPcS5_S5_@GLIBCXX_3.4.21>
    240b:	0f 1f 44 00 00       	nopl   0x0(%rax,%rax,1)

0000000000002410 <write@plt>:
    2410:	f3 0f 1e fa          	endbr64 
    2414:	f2 ff 25 35 ba 00 00 	bnd jmpq *0xba35(%rip)        # de50 <write@GLIBC_2.2.5>
    241b:	0f 1f 44 00 00       	nopl   0x0(%rax,%rax,1)

0000000000002420 <_ZSt17__throw_bad_allocv@plt>:
    2420:	f3 0f 1e fa          	endbr64 
    2424:	f2 ff 25 2d ba 00 00 	bnd jmpq *0xba2d(%rip)        # de58 <_ZSt17__throw_bad_allocv@GLIBCXX_3.4>
    242b:	0f 1f 44 00 00       	nopl   0x0(%rax,%rax,1)

0000000000002430 <__cxa_begin_catch@plt>:
    2430:	f3 0f 1e fa          	endbr64 
    2434:	f2 ff 25 25 ba 00 00 	bnd jmpq *0xba25(%rip)        # de60 <__cxa_begin_catch@CXXABI_1.3>
    243b:	0f 1f 44 00 00       	nopl   0x0(%rax,%rax,1)

0000000000002440 <_ZNSt7__cxx1119basic_istringstreamIcSt11char_traitsIcESaIcEED1Ev@plt>:
    2440:	f3 0f 1e fa          	endbr64 
    2444:	f2 ff 25 1d ba 00 00 	bnd jmpq *0xba1d(%rip)        # de68 <_ZNSt7__cxx1119basic_istringstreamIcSt11char_traitsIcESaIcEED1Ev@GLIBCXX_3.4.21>
    244b:	0f 1f 44 00 00       	nopl   0x0(%rax,%rax,1)

0000000000002450 <_ZSt20__throw_length_errorPKc@plt>:
    2450:	f3 0f 1e fa          	endbr64 
    2454:	f2 ff 25 15 ba 00 00 	bnd jmpq *0xba15(%rip)        # de70 <_ZSt20__throw_length_errorPKc@GLIBCXX_3.4>
    245b:	0f 1f 44 00 00       	nopl   0x0(%rax,%rax,1)

0000000000002460 <_ZNSirsERi@plt>:
    2460:	f3 0f 1e fa          	endbr64 
    2464:	f2 ff 25 0d ba 00 00 	bnd jmpq *0xba0d(%rip)        # de78 <_ZNSirsERi@GLIBCXX_3.4>
    246b:	0f 1f 44 00 00       	nopl   0x0(%rax,%rax,1)

0000000000002470 <_ZNSt7__cxx1112basic_stringIcSt11char_traitsIcESaIcEED1Ev@plt>:
    2470:	f3 0f 1e fa          	endbr64 
    2474:	f2 ff 25 05 ba 00 00 	bnd jmpq *0xba05(%rip)        # de80 <_ZNSt7__cxx1112basic_stringIcSt11char_traitsIcESaIcEED1Ev@GLIBCXX_3.4.21>
    247b:	0f 1f 44 00 00       	nopl   0x0(%rax,%rax,1)

0000000000002480 <_ZNSt7__cxx1112basic_stringIcSt11char_traitsIcESaIcEE13_M_set_lengthEm@plt>:
    2480:	f3 0f 1e fa          	endbr64 
    2484:	f2 ff 25 fd b9 00 00 	bnd jmpq *0xb9fd(%rip)        # de88 <_ZNSt7__cxx1112basic_stringIcSt11char_traitsIcESaIcEE13_M_set_lengthEm@GLIBCXX_3.4.21>
    248b:	0f 1f 44 00 00       	nopl   0x0(%rax,%rax,1)

0000000000002490 <_ZNKSt7__cxx1112basic_stringIcSt11char_traitsIcESaIcEE4sizeEv@plt>:
    2490:	f3 0f 1e fa          	endbr64 
    2494:	f2 ff 25 f5 b9 00 00 	bnd jmpq *0xb9f5(%rip)        # de90 <_ZNKSt7__cxx1112basic_stringIcSt11char_traitsIcESaIcEE4sizeEv@GLIBCXX_3.4.21>
    249b:	0f 1f 44 00 00       	nopl   0x0(%rax,%rax,1)

00000000000024a0 <_ZSt19__throw_logic_errorPKc@plt>:
    24a0:	f3 0f 1e fa          	endbr64 
    24a4:	f2 ff 25 ed b9 00 00 	bnd jmpq *0xb9ed(%rip)        # de98 <_ZSt19__throw_logic_errorPKc@GLIBCXX_3.4>
    24ab:	0f 1f 44 00 00       	nopl   0x0(%rax,%rax,1)

00000000000024b0 <execvp@plt>:
    24b0:	f3 0f 1e fa          	endbr64 
    24b4:	f2 ff 25 e5 b9 00 00 	bnd jmpq *0xb9e5(%rip)        # dea0 <execvp@GLIBC_2.2.5>
    24bb:	0f 1f 44 00 00       	nopl   0x0(%rax,%rax,1)

00000000000024c0 <_ZNSt7__cxx1112basic_stringIcSt11char_traitsIcESaIcEE13_M_local_dataEv@plt>:
    24c0:	f3 0f 1e fa          	endbr64 
    24c4:	f2 ff 25 dd b9 00 00 	bnd jmpq *0xb9dd(%rip)        # dea8 <_ZNSt7__cxx1112basic_stringIcSt11char_traitsIcESaIcEE13_M_local_dataEv@GLIBCXX_3.4.21>
    24cb:	0f 1f 44 00 00       	nopl   0x0(%rax,%rax,1)

00000000000024d0 <perror@plt>:
    24d0:	f3 0f 1e fa          	endbr64 
    24d4:	f2 ff 25 d5 b9 00 00 	bnd jmpq *0xb9d5(%rip)        # deb0 <perror@GLIBC_2.2.5>
    24db:	0f 1f 44 00 00       	nopl   0x0(%rax,%rax,1)

00000000000024e0 <_ZNSt7__cxx1112basic_stringIcSt11char_traitsIcESaIcEE7_M_dataEPc@plt>:
    24e0:	f3 0f 1e fa          	endbr64 
    24e4:	f2 ff 25 cd b9 00 00 	bnd jmpq *0xb9cd(%rip)        # deb8 <_ZNSt7__cxx1112basic_stringIcSt11char_traitsIcESaIcEE7_M_dataEPc@GLIBCXX_3.4.21>
    24eb:	0f 1f 44 00 00       	nopl   0x0(%rax,%rax,1)

00000000000024f0 <socketpair@plt>:
    24f0:	f3 0f 1e fa          	endbr64 
    24f4:	f2 ff 25 c5 b9 00 00 	bnd jmpq *0xb9c5(%rip)        # dec0 <socketpair@GLIBC_2.2.5>
    24fb:	0f 1f 44 00 00       	nopl   0x0(%rax,%rax,1)

0000000000002500 <__cxa_atexit@plt>:
    2500:	f3 0f 1e fa          	endbr64 
    2504:	f2 ff 25 bd b9 00 00 	bnd jmpq *0xb9bd(%rip)        # dec8 <__cxa_atexit@GLIBC_2.2.5>
    250b:	0f 1f 44 00 00       	nopl   0x0(%rax,%rax,1)

0000000000002510 <dup2@plt>:
    2510:	f3 0f 1e fa          	endbr64 
    2514:	f2 ff 25 b5 b9 00 00 	bnd jmpq *0xb9b5(%rip)        # ded0 <dup2@GLIBC_2.2.5>
    251b:	0f 1f 44 00 00       	nopl   0x0(%rax,%rax,1)

0000000000002520 <_ZdlPv@plt>:
    2520:	f3 0f 1e fa          	endbr64 
    2524:	f2 ff 25 ad b9 00 00 	bnd jmpq *0xb9ad(%rip)        # ded8 <_ZdlPv@GLIBCXX_3.4>
    252b:	0f 1f 44 00 00       	nopl   0x0(%rax,%rax,1)

0000000000002530 <select@plt>:
    2530:	f3 0f 1e fa          	endbr64 
    2534:	f2 ff 25 a5 b9 00 00 	bnd jmpq *0xb9a5(%rip)        # dee0 <select@GLIBC_2.2.5>
    253b:	0f 1f 44 00 00       	nopl   0x0(%rax,%rax,1)

0000000000002540 <_Znwm@plt>:
    2540:	f3 0f 1e fa          	endbr64 
    2544:	f2 ff 25 9d b9 00 00 	bnd jmpq *0xb99d(%rip)        # dee8 <_Znwm@GLIBCXX_3.4>
    254b:	0f 1f 44 00 00       	nopl   0x0(%rax,%rax,1)

0000000000002550 <_ZNSt7__cxx1112basic_stringIcSt11char_traitsIcESaIcEE12_Alloc_hiderC1EPcRKS3_@plt>:
    2550:	f3 0f 1e fa          	endbr64 
    2554:	f2 ff 25 95 b9 00 00 	bnd jmpq *0xb995(%rip)        # def0 <_ZNSt7__cxx1112basic_stringIcSt11char_traitsIcESaIcEE12_Alloc_hiderC1EPcRKS3_@GLIBCXX_3.4.21>
    255b:	0f 1f 44 00 00       	nopl   0x0(%rax,%rax,1)

0000000000002560 <_ZNSaIcED1Ev@plt>:
    2560:	f3 0f 1e fa          	endbr64 
    2564:	f2 ff 25 8d b9 00 00 	bnd jmpq *0xb98d(%rip)        # def8 <_ZNSaIcED1Ev@GLIBCXX_3.4>
    256b:	0f 1f 44 00 00       	nopl   0x0(%rax,%rax,1)

0000000000002570 <_ZNKSt7__cxx1112basic_stringIcSt11char_traitsIcESaIcEE7_M_dataEv@plt>:
    2570:	f3 0f 1e fa          	endbr64 
    2574:	f2 ff 25 85 b9 00 00 	bnd jmpq *0xb985(%rip)        # df00 <_ZNKSt7__cxx1112basic_stringIcSt11char_traitsIcESaIcEE7_M_dataEv@GLIBCXX_3.4.21>
    257b:	0f 1f 44 00 00       	nopl   0x0(%rax,%rax,1)

0000000000002580 <__stack_chk_fail@plt>:
    2580:	f3 0f 1e fa          	endbr64 
    2584:	f2 ff 25 7d b9 00 00 	bnd jmpq *0xb97d(%rip)        # df08 <__stack_chk_fail@GLIBC_2.4>
    258b:	0f 1f 44 00 00       	nopl   0x0(%rax,%rax,1)

0000000000002590 <fflush@plt>:
    2590:	f3 0f 1e fa          	endbr64 
    2594:	f2 ff 25 75 b9 00 00 	bnd jmpq *0xb975(%rip)        # df10 <fflush@GLIBC_2.2.5>
    259b:	0f 1f 44 00 00       	nopl   0x0(%rax,%rax,1)

00000000000025a0 <_ZNSt7__cxx1112basic_stringIcSt11char_traitsIcESaIcEE10_M_disposeEv@plt>:
    25a0:	f3 0f 1e fa          	endbr64 
    25a4:	f2 ff 25 6d b9 00 00 	bnd jmpq *0xb96d(%rip)        # df18 <_ZNSt7__cxx1112basic_stringIcSt11char_traitsIcESaIcEE10_M_disposeEv@GLIBCXX_3.4.21>
    25ab:	0f 1f 44 00 00       	nopl   0x0(%rax,%rax,1)

00000000000025b0 <_ZdaPv@plt>:
    25b0:	f3 0f 1e fa          	endbr64 
    25b4:	f2 ff 25 65 b9 00 00 	bnd jmpq *0xb965(%rip)        # df20 <_ZdaPv@GLIBCXX_3.4>
    25bb:	0f 1f 44 00 00       	nopl   0x0(%rax,%rax,1)

00000000000025c0 <malloc@plt>:
    25c0:	f3 0f 1e fa          	endbr64 
    25c4:	f2 ff 25 5d b9 00 00 	bnd jmpq *0xb95d(%rip)        # df28 <malloc@GLIBC_2.2.5>
    25cb:	0f 1f 44 00 00       	nopl   0x0(%rax,%rax,1)

00000000000025d0 <_ZNSt7__cxx1112basic_stringIcSt11char_traitsIcESaIcEEC1EPKcRKS3_@plt>:
    25d0:	f3 0f 1e fa          	endbr64 
    25d4:	f2 ff 25 55 b9 00 00 	bnd jmpq *0xb955(%rip)        # df30 <_ZNSt7__cxx1112basic_stringIcSt11char_traitsIcESaIcEEC1EPKcRKS3_@GLIBCXX_3.4.21>
    25db:	0f 1f 44 00 00       	nopl   0x0(%rax,%rax,1)

00000000000025e0 <_ZNSt7__cxx1112basic_stringIcSt11char_traitsIcESaIcEEC1Ev@plt>:
    25e0:	f3 0f 1e fa          	endbr64 
    25e4:	f2 ff 25 4d b9 00 00 	bnd jmpq *0xb94d(%rip)        # df38 <_ZNSt7__cxx1112basic_stringIcSt11char_traitsIcESaIcEEC1Ev@GLIBCXX_3.4.21>
    25eb:	0f 1f 44 00 00       	nopl   0x0(%rax,%rax,1)

00000000000025f0 <usleep@plt>:
    25f0:	f3 0f 1e fa          	endbr64 
    25f4:	f2 ff 25 45 b9 00 00 	bnd jmpq *0xb945(%rip)        # df40 <usleep@GLIBC_2.2.5>
    25fb:	0f 1f 44 00 00       	nopl   0x0(%rax,%rax,1)

0000000000002600 <kill@plt>:
    2600:	f3 0f 1e fa          	endbr64 
    2604:	f2 ff 25 3d b9 00 00 	bnd jmpq *0xb93d(%rip)        # df48 <kill@GLIBC_2.2.5>
    260b:	0f 1f 44 00 00       	nopl   0x0(%rax,%rax,1)

0000000000002610 <read@plt>:
    2610:	f3 0f 1e fa          	endbr64 
    2614:	f2 ff 25 35 b9 00 00 	bnd jmpq *0xb935(%rip)        # df50 <read@GLIBC_2.2.5>
    261b:	0f 1f 44 00 00       	nopl   0x0(%rax,%rax,1)

0000000000002620 <__cxa_rethrow@plt>:
    2620:	f3 0f 1e fa          	endbr64 
    2624:	f2 ff 25 2d b9 00 00 	bnd jmpq *0xb92d(%rip)        # df58 <__cxa_rethrow@CXXABI_1.3>
    262b:	0f 1f 44 00 00       	nopl   0x0(%rax,%rax,1)

0000000000002630 <_ZNKSt7__cxx1112basic_stringIcSt11char_traitsIcESaIcEE6lengthEv@plt>:
    2630:	f3 0f 1e fa          	endbr64 
    2634:	f2 ff 25 25 b9 00 00 	bnd jmpq *0xb925(%rip)        # df60 <_ZNKSt7__cxx1112basic_stringIcSt11char_traitsIcESaIcEE6lengthEv@GLIBCXX_3.4.21>
    263b:	0f 1f 44 00 00       	nopl   0x0(%rax,%rax,1)

0000000000002640 <_ZNSt8ios_base4InitC1Ev@plt>:
    2640:	f3 0f 1e fa          	endbr64 
    2644:	f2 ff 25 1d b9 00 00 	bnd jmpq *0xb91d(%rip)        # df68 <_ZNSt8ios_base4InitC1Ev@GLIBCXX_3.4>
    264b:	0f 1f 44 00 00       	nopl   0x0(%rax,%rax,1)

0000000000002650 <puts@plt>:
    2650:	f3 0f 1e fa          	endbr64 
    2654:	f2 ff 25 15 b9 00 00 	bnd jmpq *0xb915(%rip)        # df70 <puts@GLIBC_2.2.5>
    265b:	0f 1f 44 00 00       	nopl   0x0(%rax,%rax,1)

0000000000002660 <snprintf@plt>:
    2660:	f3 0f 1e fa          	endbr64 
    2664:	f2 ff 25 0d b9 00 00 	bnd jmpq *0xb90d(%rip)        # df78 <snprintf@GLIBC_2.2.5>
    266b:	0f 1f 44 00 00       	nopl   0x0(%rax,%rax,1)

0000000000002670 <memmove@plt>:
    2670:	f3 0f 1e fa          	endbr64 
    2674:	f2 ff 25 05 b9 00 00 	bnd jmpq *0xb905(%rip)        # df80 <memmove@GLIBC_2.2.5>
    267b:	0f 1f 44 00 00       	nopl   0x0(%rax,%rax,1)

0000000000002680 <__cxa_end_catch@plt>:
    2680:	f3 0f 1e fa          	endbr64 
    2684:	f2 ff 25 fd b8 00 00 	bnd jmpq *0xb8fd(%rip)        # df88 <__cxa_end_catch@CXXABI_1.3>
    268b:	0f 1f 44 00 00       	nopl   0x0(%rax,%rax,1)

0000000000002690 <_ZNSt7__cxx1119basic_istringstreamIcSt11char_traitsIcESaIcEEC1ERKNS_12basic_stringIcS2_S3_EESt13_Ios_Openmode@plt>:
    2690:	f3 0f 1e fa          	endbr64 
    2694:	f2 ff 25 f5 b8 00 00 	bnd jmpq *0xb8f5(%rip)        # df90 <_ZNSt7__cxx1119basic_istringstreamIcSt11char_traitsIcESaIcEEC1ERKNS_12basic_stringIcS2_S3_EESt13_Ios_Openmode@GLIBCXX_3.4.21>
    269b:	0f 1f 44 00 00       	nopl   0x0(%rax,%rax,1)

00000000000026a0 <_Unwind_Resume@plt>:
    26a0:	f3 0f 1e fa          	endbr64 
    26a4:	f2 ff 25 ed b8 00 00 	bnd jmpq *0xb8ed(%rip)        # df98 <_Unwind_Resume@GCC_3.0>
    26ab:	0f 1f 44 00 00       	nopl   0x0(%rax,%rax,1)

00000000000026b0 <_ZNSaIcEC1Ev@plt>:
    26b0:	f3 0f 1e fa          	endbr64 
    26b4:	f2 ff 25 e5 b8 00 00 	bnd jmpq *0xb8e5(%rip)        # dfa0 <_ZNSaIcEC1Ev@GLIBCXX_3.4>
    26bb:	0f 1f 44 00 00       	nopl   0x0(%rax,%rax,1)

00000000000026c0 <_ZNSt7__cxx1112basic_stringIcSt11char_traitsIcESaIcEE9_M_createERmm@plt>:
    26c0:	f3 0f 1e fa          	endbr64 
    26c4:	f2 ff 25 dd b8 00 00 	bnd jmpq *0xb8dd(%rip)        # dfa8 <_ZNSt7__cxx1112basic_stringIcSt11char_traitsIcESaIcEE9_M_createERmm@GLIBCXX_3.4.21>
    26cb:	0f 1f 44 00 00       	nopl   0x0(%rax,%rax,1)

00000000000026d0 <_ZNSt7__cxx1112basic_stringIcSt11char_traitsIcESaIcEE2atEm@plt>:
    26d0:	f3 0f 1e fa          	endbr64 
    26d4:	f2 ff 25 d5 b8 00 00 	bnd jmpq *0xb8d5(%rip)        # dfb0 <_ZNSt7__cxx1112basic_stringIcSt11char_traitsIcESaIcEE2atEm@GLIBCXX_3.4.21>
    26db:	0f 1f 44 00 00       	nopl   0x0(%rax,%rax,1)

00000000000026e0 <close@plt>:
    26e0:	f3 0f 1e fa          	endbr64 
    26e4:	f2 ff 25 cd b8 00 00 	bnd jmpq *0xb8cd(%rip)        # dfb8 <close@GLIBC_2.2.5>
    26eb:	0f 1f 44 00 00       	nopl   0x0(%rax,%rax,1)

00000000000026f0 <_ZNSt7__cxx1112basic_stringIcSt11char_traitsIcESaIcEE11_M_capacityEm@plt>:
    26f0:	f3 0f 1e fa          	endbr64 
    26f4:	f2 ff 25 c5 b8 00 00 	bnd jmpq *0xb8c5(%rip)        # dfc0 <_ZNSt7__cxx1112basic_stringIcSt11char_traitsIcESaIcEE11_M_capacityEm@GLIBCXX_3.4.21>
    26fb:	0f 1f 44 00 00       	nopl   0x0(%rax,%rax,1)

Disassembly of section .text:

0000000000002700 <_start>:
    2700:	f3 0f 1e fa          	endbr64 
    2704:	31 ed                	xor    %ebp,%ebp
    2706:	49 89 d1             	mov    %rdx,%r9
    2709:	5e                   	pop    %rsi
    270a:	48 89 e2             	mov    %rsp,%rdx
    270d:	48 83 e4 f0          	and    $0xfffffffffffffff0,%rsp
    2711:	50                   	push   %rax
    2712:	54                   	push   %rsp
    2713:	4c 8d 05 c6 63 00 00 	lea    0x63c6(%rip),%r8        # 8ae0 <__libc_csu_fini>
    271a:	48 8d 0d 4f 63 00 00 	lea    0x634f(%rip),%rcx        # 8a70 <__libc_csu_init>
    2721:	48 8d 3d 5a 04 00 00 	lea    0x45a(%rip),%rdi        # 2b82 <main>
    2728:	ff 15 b2 b8 00 00    	callq  *0xb8b2(%rip)        # dfe0 <__libc_start_main@GLIBC_2.2.5>
    272e:	f4                   	hlt    
    272f:	90                   	nop

0000000000002730 <deregister_tm_clones>:
    2730:	48 8d 3d e1 b8 00 00 	lea    0xb8e1(%rip),%rdi        # e018 <__TMC_END__>
    2737:	48 8d 05 da b8 00 00 	lea    0xb8da(%rip),%rax        # e018 <__TMC_END__>
    273e:	48 39 f8             	cmp    %rdi,%rax
    2741:	74 15                	je     2758 <deregister_tm_clones+0x28>
    2743:	48 8b 05 8e b8 00 00 	mov    0xb88e(%rip),%rax        # dfd8 <_ITM_deregisterTMCloneTable>
    274a:	48 85 c0             	test   %rax,%rax
    274d:	74 09                	je     2758 <deregister_tm_clones+0x28>
    274f:	ff e0                	jmpq   *%rax
    2751:	0f 1f 80 00 00 00 00 	nopl   0x0(%rax)
    2758:	c3                   	retq   
    2759:	0f 1f 80 00 00 00 00 	nopl   0x0(%rax)

0000000000002760 <register_tm_clones>:
    2760:	48 8d 3d b1 b8 00 00 	lea    0xb8b1(%rip),%rdi        # e018 <__TMC_END__>
    2767:	48 8d 35 aa b8 00 00 	lea    0xb8aa(%rip),%rsi        # e018 <__TMC_END__>
    276e:	48 29 fe             	sub    %rdi,%rsi
    2771:	48 89 f0             	mov    %rsi,%rax
    2774:	48 c1 ee 3f          	shr    $0x3f,%rsi
    2778:	48 c1 f8 03          	sar    $0x3,%rax
    277c:	48 01 c6             	add    %rax,%rsi
    277f:	48 d1 fe             	sar    %rsi
    2782:	74 14                	je     2798 <register_tm_clones+0x38>
    2784:	48 8b 05 65 b8 00 00 	mov    0xb865(%rip),%rax        # dff0 <_ITM_registerTMCloneTable>
    278b:	48 85 c0             	test   %rax,%rax
    278e:	74 08                	je     2798 <register_tm_clones+0x38>
    2790:	ff e0                	jmpq   *%rax
    2792:	66 0f 1f 44 00 00    	nopw   0x0(%rax,%rax,1)
    2798:	c3                   	retq   
    2799:	0f 1f 80 00 00 00 00 	nopl   0x0(%rax)

00000000000027a0 <__do_global_dtors_aux>:
    27a0:	f3 0f 1e fa          	endbr64 
    27a4:	80 3d ad b9 00 00 00 	cmpb   $0x0,0xb9ad(%rip)        # e158 <completed.8061>
    27ab:	75 2b                	jne    27d8 <__do_global_dtors_aux+0x38>
    27ad:	55                   	push   %rbp
    27ae:	48 83 3d 12 b8 00 00 	cmpq   $0x0,0xb812(%rip)        # dfc8 <__cxa_finalize@GLIBC_2.2.5>
    27b5:	00 
    27b6:	48 89 e5             	mov    %rsp,%rbp
    27b9:	74 0c                	je     27c7 <__do_global_dtors_aux+0x27>
    27bb:	48 8b 3d 46 b8 00 00 	mov    0xb846(%rip),%rdi        # e008 <__dso_handle>
    27c2:	e8 c9 fb ff ff       	callq  2390 <__cxa_finalize@plt>
    27c7:	e8 64 ff ff ff       	callq  2730 <deregister_tm_clones>
    27cc:	c6 05 85 b9 00 00 01 	movb   $0x1,0xb985(%rip)        # e158 <completed.8061>
    27d3:	5d                   	pop    %rbp
    27d4:	c3                   	retq   
    27d5:	0f 1f 00             	nopl   (%rax)
    27d8:	c3                   	retq   
    27d9:	0f 1f 80 00 00 00 00 	nopl   0x0(%rax)

00000000000027e0 <frame_dummy>:
    27e0:	f3 0f 1e fa          	endbr64 
    27e4:	e9 77 ff ff ff       	jmpq   2760 <register_tm_clones>

00000000000027e9 <_Z12get_map_itemPP15object_map_dataii>:
    27e9:	f3 0f 1e fa          	endbr64 
    27ed:	55                   	push   %rbp
    27ee:	48 89 e5             	mov    %rsp,%rbp
    27f1:	48 89 7d f8          	mov    %rdi,-0x8(%rbp)
    27f5:	89 75 f4             	mov    %esi,-0xc(%rbp)
    27f8:	89 55 f0             	mov    %edx,-0x10(%rbp)
    27fb:	8b 45 f0             	mov    -0x10(%rbp),%eax
    27fe:	48 98                	cltq   
    2800:	48 8d 14 c5 00 00 00 	lea    0x0(,%rax,8),%rdx
    2807:	00 
    2808:	48 8b 45 f8          	mov    -0x8(%rbp),%rax
    280c:	48 01 d0             	add    %rdx,%rax
    280f:	48 8b 08             	mov    (%rax),%rcx
    2812:	8b 45 f4             	mov    -0xc(%rbp),%eax
    2815:	48 63 d0             	movslq %eax,%rdx
    2818:	48 89 d0             	mov    %rdx,%rax
    281b:	48 01 c0             	add    %rax,%rax
    281e:	48 01 d0             	add    %rdx,%rax
    2821:	48 c1 e0 02          	shl    $0x2,%rax
    2825:	48 01 c8             	add    %rcx,%rax
    2828:	5d                   	pop    %rbp
    2829:	c3                   	retq   

000000000000282a <_Z12set_map_itemPP15object_map_dataii11object_type>:
    282a:	f3 0f 1e fa          	endbr64 
    282e:	55                   	push   %rbp
    282f:	48 89 e5             	mov    %rsp,%rbp
    2832:	48 83 ec 40          	sub    $0x40,%rsp
    2836:	48 89 7d d8          	mov    %rdi,-0x28(%rbp)
    283a:	89 75 d4             	mov    %esi,-0x2c(%rbp)
    283d:	89 55 d0             	mov    %edx,-0x30(%rbp)
    2840:	89 4d cc             	mov    %ecx,-0x34(%rbp)
    2843:	64 48 8b 04 25 28 00 	mov    %fs:0x28,%rax
    284a:	00 00 
    284c:	48 89 45 f8          	mov    %rax,-0x8(%rbp)
    2850:	31 c0                	xor    %eax,%eax
    2852:	8b 45 cc             	mov    -0x34(%rbp),%eax
    2855:	89 45 f0             	mov    %eax,-0x10(%rbp)
    2858:	c6 45 ec 01          	movb   $0x1,-0x14(%rbp)
    285c:	c6 45 f4 01          	movb   $0x1,-0xc(%rbp)
    2860:	c6 45 f5 00          	movb   $0x0,-0xb(%rbp)
    2864:	8b 45 d0             	mov    -0x30(%rbp),%eax
    2867:	48 98                	cltq   
    2869:	48 8d 14 c5 00 00 00 	lea    0x0(,%rax,8),%rdx
    2870:	00 
    2871:	48 8b 45 d8          	mov    -0x28(%rbp),%rax
    2875:	48 01 d0             	add    %rdx,%rax
    2878:	48 8b 08             	mov    (%rax),%rcx
    287b:	8b 45 d4             	mov    -0x2c(%rbp),%eax
    287e:	48 63 d0             	movslq %eax,%rdx
    2881:	48 89 d0             	mov    %rdx,%rax
    2884:	48 01 c0             	add    %rax,%rax
    2887:	48 01 d0             	add    %rdx,%rax
    288a:	48 c1 e0 02          	shl    $0x2,%rax
    288e:	48 01 c8             	add    %rcx,%rax
    2891:	48 8b 55 ec          	mov    -0x14(%rbp),%rdx
    2895:	48 89 10             	mov    %rdx,(%rax)
    2898:	8b 55 f4             	mov    -0xc(%rbp),%edx
    289b:	89 50 08             	mov    %edx,0x8(%rax)
    289e:	90                   	nop
    289f:	48 8b 45 f8          	mov    -0x8(%rbp),%rax
    28a3:	64 48 33 04 25 28 00 	xor    %fs:0x28,%rax
    28aa:	00 00 
    28ac:	74 05                	je     28b3 <_Z12set_map_itemPP15object_map_dataii11object_type+0x89>
    28ae:	e8 cd fc ff ff       	callq  2580 <__stack_chk_fail@plt>
    28b3:	c9                   	leaveq 
    28b4:	c3                   	retq   

00000000000028b5 <_Z15update_map_itemPP15object_map_dataii11object_typeb>:
    28b5:	f3 0f 1e fa          	endbr64 
    28b9:	55                   	push   %rbp
    28ba:	48 89 e5             	mov    %rsp,%rbp
    28bd:	48 83 ec 40          	sub    $0x40,%rsp
    28c1:	48 89 7d d8          	mov    %rdi,-0x28(%rbp)
    28c5:	89 75 d4             	mov    %esi,-0x2c(%rbp)
    28c8:	89 55 d0             	mov    %edx,-0x30(%rbp)
    28cb:	89 4d cc             	mov    %ecx,-0x34(%rbp)
    28ce:	44 89 c0             	mov    %r8d,%eax
    28d1:	88 45 c8             	mov    %al,-0x38(%rbp)
    28d4:	64 48 8b 04 25 28 00 	mov    %fs:0x28,%rax
    28db:	00 00 
    28dd:	48 89 45 f8          	mov    %rax,-0x8(%rbp)
    28e1:	31 c0                	xor    %eax,%eax
    28e3:	8b 45 cc             	mov    -0x34(%rbp),%eax
    28e6:	89 45 f0             	mov    %eax,-0x10(%rbp)
    28e9:	0f b6 45 c8          	movzbl -0x38(%rbp),%eax
    28ed:	88 45 ec             	mov    %al,-0x14(%rbp)
    28f0:	8b 45 d0             	mov    -0x30(%rbp),%eax
    28f3:	48 98                	cltq   
    28f5:	48 8d 14 c5 00 00 00 	lea    0x0(,%rax,8),%rdx
    28fc:	00 
    28fd:	48 8b 45 d8          	mov    -0x28(%rbp),%rax
    2901:	48 01 d0             	add    %rdx,%rax
    2904:	48 8b 08             	mov    (%rax),%rcx
    2907:	8b 45 d4             	mov    -0x2c(%rbp),%eax
    290a:	48 63 d0             	movslq %eax,%rdx
    290d:	48 89 d0             	mov    %rdx,%rax
    2910:	48 01 c0             	add    %rax,%rax
    2913:	48 01 d0             	add    %rdx,%rax
    2916:	48 c1 e0 02          	shl    $0x2,%rax
    291a:	48 01 c8             	add    %rcx,%rax
    291d:	48 8b 55 ec          	mov    -0x14(%rbp),%rdx
    2921:	48 89 10             	mov    %rdx,(%rax)
    2924:	8b 55 f4             	mov    -0xc(%rbp),%edx
    2927:	89 50 08             	mov    %edx,0x8(%rax)
    292a:	90                   	nop
    292b:	48 8b 45 f8          	mov    -0x8(%rbp),%rax
    292f:	64 48 33 04 25 28 00 	xor    %fs:0x28,%rax
    2936:	00 00 
    2938:	74 05                	je     293f <_Z15update_map_itemPP15object_map_dataii11object_typeb+0x8a>
    293a:	e8 41 fc ff ff       	callq  2580 <__stack_chk_fail@plt>
    293f:	c9                   	leaveq 
    2940:	c3                   	retq   

0000000000002941 <_Z13move_map_itemPP15object_map_dataii11object_typeii>:
    2941:	f3 0f 1e fa          	endbr64 
    2945:	55                   	push   %rbp
    2946:	48 89 e5             	mov    %rsp,%rbp
    2949:	48 83 ec 40          	sub    $0x40,%rsp
    294d:	48 89 7d d8          	mov    %rdi,-0x28(%rbp)
    2951:	89 75 d4             	mov    %esi,-0x2c(%rbp)
    2954:	89 55 d0             	mov    %edx,-0x30(%rbp)
    2957:	89 4d cc             	mov    %ecx,-0x34(%rbp)
    295a:	44 89 45 c8          	mov    %r8d,-0x38(%rbp)
    295e:	44 89 4d c4          	mov    %r9d,-0x3c(%rbp)
    2962:	64 48 8b 04 25 28 00 	mov    %fs:0x28,%rax
    2969:	00 00 
    296b:	48 89 45 f8          	mov    %rax,-0x8(%rbp)
    296f:	31 c0                	xor    %eax,%eax
    2971:	8b 45 d0             	mov    -0x30(%rbp),%eax
    2974:	48 98                	cltq   
    2976:	48 8d 14 c5 00 00 00 	lea    0x0(,%rax,8),%rdx
    297d:	00 
    297e:	48 8b 45 d8          	mov    -0x28(%rbp),%rax
    2982:	48 01 d0             	add    %rdx,%rax
    2985:	48 8b 08             	mov    (%rax),%rcx
    2988:	8b 45 d4             	mov    -0x2c(%rbp),%eax
    298b:	48 63 d0             	movslq %eax,%rdx
    298e:	48 89 d0             	mov    %rdx,%rax
    2991:	48 01 c0             	add    %rax,%rax
    2994:	48 01 d0             	add    %rdx,%rax
    2997:	48 c1 e0 02          	shl    $0x2,%rax
    299b:	48 01 c8             	add    %rcx,%rax
    299e:	c6 00 00             	movb   $0x0,(%rax)
    29a1:	8b 45 d0             	mov    -0x30(%rbp),%eax
    29a4:	48 98                	cltq   
    29a6:	48 8d 14 c5 00 00 00 	lea    0x0(,%rax,8),%rdx
    29ad:	00 
    29ae:	48 8b 45 d8          	mov    -0x28(%rbp),%rax
    29b2:	48 01 d0             	add    %rdx,%rax
    29b5:	48 8b 08             	mov    (%rax),%rcx
    29b8:	8b 45 d4             	mov    -0x2c(%rbp),%eax
    29bb:	48 63 d0             	movslq %eax,%rdx
    29be:	48 89 d0             	mov    %rdx,%rax
    29c1:	48 01 c0             	add    %rax,%rax
    29c4:	48 01 d0             	add    %rdx,%rax
    29c7:	48 c1 e0 02          	shl    $0x2,%rax
    29cb:	48 01 c8             	add    %rcx,%rax
    29ce:	c6 40 08 00          	movb   $0x0,0x8(%rax)
    29d2:	8b 45 cc             	mov    -0x34(%rbp),%eax
    29d5:	89 45 f0             	mov    %eax,-0x10(%rbp)
    29d8:	c6 45 ec 01          	movb   $0x1,-0x14(%rbp)
    29dc:	c6 45 f4 01          	movb   $0x1,-0xc(%rbp)
    29e0:	c6 45 f5 00          	movb   $0x0,-0xb(%rbp)
    29e4:	8b 45 c4             	mov    -0x3c(%rbp),%eax
    29e7:	48 98                	cltq   
    29e9:	48 8d 14 c5 00 00 00 	lea    0x0(,%rax,8),%rdx
    29f0:	00 
    29f1:	48 8b 45 d8          	mov    -0x28(%rbp),%rax
    29f5:	48 01 d0             	add    %rdx,%rax
    29f8:	48 8b 08             	mov    (%rax),%rcx
    29fb:	8b 45 c8             	mov    -0x38(%rbp),%eax
    29fe:	48 63 d0             	movslq %eax,%rdx
    2a01:	48 89 d0             	mov    %rdx,%rax
    2a04:	48 01 c0             	add    %rax,%rax
    2a07:	48 01 d0             	add    %rdx,%rax
    2a0a:	48 c1 e0 02          	shl    $0x2,%rax
    2a0e:	48 01 c8             	add    %rcx,%rax
    2a11:	48 8b 55 ec          	mov    -0x14(%rbp),%rdx
    2a15:	48 89 10             	mov    %rdx,(%rax)
    2a18:	8b 55 f4             	mov    -0xc(%rbp),%edx
    2a1b:	89 50 08             	mov    %edx,0x8(%rax)
    2a1e:	90                   	nop
    2a1f:	48 8b 45 f8          	mov    -0x8(%rbp),%rax
    2a23:	64 48 33 04 25 28 00 	xor    %fs:0x28,%rax
    2a2a:	00 00 
    2a2c:	74 05                	je     2a33 <_Z13move_map_itemPP15object_map_dataii11object_typeii+0xf2>
    2a2e:	e8 4d fb ff ff       	callq  2580 <__stack_chk_fail@plt>
    2a33:	c9                   	leaveq 
    2a34:	c3                   	retq   

0000000000002a35 <_Z15set_game_winnerPP15object_map_dataii>:
    2a35:	f3 0f 1e fa          	endbr64 
    2a39:	55                   	push   %rbp
    2a3a:	48 89 e5             	mov    %rsp,%rbp
    2a3d:	48 83 ec 20          	sub    $0x20,%rsp
    2a41:	48 89 7d e8          	mov    %rdi,-0x18(%rbp)
    2a45:	89 75 e4             	mov    %esi,-0x1c(%rbp)
    2a48:	89 55 e0             	mov    %edx,-0x20(%rbp)
    2a4b:	c7 45 f8 00 00 00 00 	movl   $0x0,-0x8(%rbp)
    2a52:	8b 45 f8             	mov    -0x8(%rbp),%eax
    2a55:	3b 45 e0             	cmp    -0x20(%rbp),%eax
    2a58:	0f 8d 90 00 00 00    	jge    2aee <_Z15set_game_winnerPP15object_map_dataii+0xb9>
    2a5e:	c7 45 fc 00 00 00 00 	movl   $0x0,-0x4(%rbp)
    2a65:	8b 45 fc             	mov    -0x4(%rbp),%eax
    2a68:	3b 45 e4             	cmp    -0x1c(%rbp),%eax
    2a6b:	7d 78                	jge    2ae5 <_Z15set_game_winnerPP15object_map_dataii+0xb0>
    2a6d:	8b 45 f8             	mov    -0x8(%rbp),%eax
    2a70:	48 98                	cltq   
    2a72:	48 8d 14 c5 00 00 00 	lea    0x0(,%rax,8),%rdx
    2a79:	00 
    2a7a:	48 8b 45 e8          	mov    -0x18(%rbp),%rax
    2a7e:	48 01 d0             	add    %rdx,%rax
    2a81:	48 8b 08             	mov    (%rax),%rcx
    2a84:	8b 45 fc             	mov    -0x4(%rbp),%eax
    2a87:	48 63 d0             	movslq %eax,%rdx
    2a8a:	48 89 d0             	mov    %rdx,%rax
    2a8d:	48 01 c0             	add    %rax,%rax
    2a90:	48 01 d0             	add    %rdx,%rax
    2a93:	48 c1 e0 02          	shl    $0x2,%rax
    2a97:	48 01 c8             	add    %rcx,%rax
    2a9a:	0f b6 40 08          	movzbl 0x8(%rax),%eax
    2a9e:	84 c0                	test   %al,%al
    2aa0:	74 3d                	je     2adf <_Z15set_game_winnerPP15object_map_dataii+0xaa>
    2aa2:	48 8d 3d 64 65 00 00 	lea    0x6564(%rip),%rdi        # 900d <_ZStL19piecewise_construct+0x5>
    2aa9:	e8 a2 fb ff ff       	callq  2650 <puts@plt>
    2aae:	8b 45 f8             	mov    -0x8(%rbp),%eax
    2ab1:	48 98                	cltq   
    2ab3:	48 8d 14 c5 00 00 00 	lea    0x0(,%rax,8),%rdx
    2aba:	00 
    2abb:	48 8b 45 e8          	mov    -0x18(%rbp),%rax
    2abf:	48 01 d0             	add    %rdx,%rax
    2ac2:	48 8b 08             	mov    (%rax),%rcx
    2ac5:	8b 45 fc             	mov    -0x4(%rbp),%eax
    2ac8:	48 63 d0             	movslq %eax,%rdx
    2acb:	48 89 d0             	mov    %rdx,%rax
    2ace:	48 01 c0             	add    %rax,%rax
    2ad1:	48 01 d0             	add    %rdx,%rax
    2ad4:	48 c1 e0 02          	shl    $0x2,%rax
    2ad8:	48 01 c8             	add    %rcx,%rax
    2adb:	c6 40 09 01          	movb   $0x1,0x9(%rax)
    2adf:	83 45 fc 01          	addl   $0x1,-0x4(%rbp)
    2ae3:	eb 80                	jmp    2a65 <_Z15set_game_winnerPP15object_map_dataii+0x30>
    2ae5:	83 45 f8 01          	addl   $0x1,-0x8(%rbp)
    2ae9:	e9 64 ff ff ff       	jmpq   2a52 <_Z15set_game_winnerPP15object_map_dataii+0x1d>
    2aee:	90                   	nop
    2aef:	c9                   	leaveq 
    2af0:	c3                   	retq   

0000000000002af1 <_Z11kill_bomberPP15object_map_dataiiiiPi>:
    2af1:	f3 0f 1e fa          	endbr64 
    2af5:	55                   	push   %rbp
    2af6:	48 89 e5             	mov    %rsp,%rbp
    2af9:	48 83 ec 30          	sub    $0x30,%rsp
    2afd:	48 89 7d e8          	mov    %rdi,-0x18(%rbp)
    2b01:	89 75 e4             	mov    %esi,-0x1c(%rbp)
    2b04:	89 55 e0             	mov    %edx,-0x20(%rbp)
    2b07:	89 4d dc             	mov    %ecx,-0x24(%rbp)
    2b0a:	44 89 45 d8          	mov    %r8d,-0x28(%rbp)
    2b0e:	4c 89 4d d0          	mov    %r9,-0x30(%rbp)
    2b12:	8b 55 e0             	mov    -0x20(%rbp),%edx
    2b15:	8b 4d e4             	mov    -0x1c(%rbp),%ecx
    2b18:	48 8b 45 e8          	mov    -0x18(%rbp),%rax
    2b1c:	89 ce                	mov    %ecx,%esi
    2b1e:	48 89 c7             	mov    %rax,%rdi
    2b21:	e8 c3 fc ff ff       	callq  27e9 <_Z12get_map_itemPP15object_map_dataii>
    2b26:	48 89 45 f8          	mov    %rax,-0x8(%rbp)
    2b2a:	48 8b 45 f8          	mov    -0x8(%rbp),%rax
    2b2e:	0f b6 40 08          	movzbl 0x8(%rax),%eax
    2b32:	84 c0                	test   %al,%al
    2b34:	74 49                	je     2b7f <_Z11kill_bomberPP15object_map_dataiiiiPi+0x8e>
    2b36:	48 8d 3d e1 64 00 00 	lea    0x64e1(%rip),%rdi        # 901e <_ZStL19piecewise_construct+0x16>
    2b3d:	e8 0e fb ff ff       	callq  2650 <puts@plt>
    2b42:	48 8b 45 f8          	mov    -0x8(%rbp),%rax
    2b46:	c6 40 08 00          	movb   $0x0,0x8(%rax)
    2b4a:	48 8b 45 f8          	mov    -0x8(%rbp),%rax
    2b4e:	c6 00 00             	movb   $0x0,(%rax)
    2b51:	48 8b 45 d0          	mov    -0x30(%rbp),%rax
    2b55:	8b 00                	mov    (%rax),%eax
    2b57:	8d 50 ff             	lea    -0x1(%rax),%edx
    2b5a:	48 8b 45 d0          	mov    -0x30(%rbp),%rax
    2b5e:	89 10                	mov    %edx,(%rax)
    2b60:	48 8b 45 d0          	mov    -0x30(%rbp),%rax
    2b64:	8b 00                	mov    (%rax),%eax
    2b66:	83 f8 01             	cmp    $0x1,%eax
    2b69:	75 14                	jne    2b7f <_Z11kill_bomberPP15object_map_dataiiiiPi+0x8e>
    2b6b:	8b 55 d8             	mov    -0x28(%rbp),%edx
    2b6e:	8b 4d dc             	mov    -0x24(%rbp),%ecx
    2b71:	48 8b 45 e8          	mov    -0x18(%rbp),%rax
    2b75:	89 ce                	mov    %ecx,%esi
    2b77:	48 89 c7             	mov    %rax,%rdi
    2b7a:	e8 b6 fe ff ff       	callq  2a35 <_Z15set_game_winnerPP15object_map_dataii>
    2b7f:	90                   	nop
    2b80:	c9                   	leaveq 
    2b81:	c3                   	retq   

0000000000002b82 <main>:
    2b82:	f3 0f 1e fa          	endbr64 
    2b86:	55                   	push   %rbp
    2b87:	48 89 e5             	mov    %rsp,%rbp
    2b8a:	41 55                	push   %r13
    2b8c:	41 54                	push   %r12
    2b8e:	53                   	push   %rbx
    2b8f:	48 81 ec c8 05 00 00 	sub    $0x5c8,%rsp
    2b96:	89 bd 2c fa ff ff    	mov    %edi,-0x5d4(%rbp)
    2b9c:	48 89 b5 20 fa ff ff 	mov    %rsi,-0x5e0(%rbp)
    2ba3:	64 48 8b 04 25 28 00 	mov    %fs:0x28,%rax
    2baa:	00 00 
    2bac:	48 89 45 d8          	mov    %rax,-0x28(%rbp)
    2bb0:	31 c0                	xor    %eax,%eax
    2bb2:	c7 85 38 fa ff ff 00 	movl   $0x0,-0x5c8(%rbp)
    2bb9:	00 00 00 
    2bbc:	c7 85 3c fa ff ff 00 	movl   $0x0,-0x5c4(%rbp)
    2bc3:	00 00 00 
    2bc6:	c7 85 40 fa ff ff 00 	movl   $0x0,-0x5c0(%rbp)
    2bcd:	00 00 00 
    2bd0:	c7 85 44 fa ff ff 00 	movl   $0x0,-0x5bc(%rbp)
    2bd7:	00 00 00 
    2bda:	c7 85 48 fa ff ff 00 	movl   $0x0,-0x5b8(%rbp)
    2be1:	00 00 00 
    2be4:	c7 85 4c fa ff ff 00 	movl   $0x0,-0x5b4(%rbp)
    2beb:	00 00 00 
    2bee:	48 8d 85 80 fb ff ff 	lea    -0x480(%rbp),%rax
    2bf5:	48 89 c7             	mov    %rax,%rdi
    2bf8:	e8 d1 20 00 00       	callq  4cce <_ZNSt6vectorIS_IiSaIiEESaIS1_EEC1Ev>
    2bfd:	c6 85 37 fa ff ff 00 	movb   $0x0,-0x5c9(%rbp)
    2c04:	48 8d 85 a0 fb ff ff 	lea    -0x460(%rbp),%rax
    2c0b:	48 89 c7             	mov    %rax,%rdi
    2c0e:	e8 1b 21 00 00       	callq  4d2e <_ZNSt6vectorI13obstacle_dataSaIS0_EEC1Ev>
    2c13:	48 8d 85 c0 fb ff ff 	lea    -0x440(%rbp),%rax
    2c1a:	48 89 c7             	mov    %rax,%rdi
    2c1d:	e8 6c 21 00 00       	callq  4d8e <_ZNSt6vectorI11bomber_dataSaIS0_EEC1Ev>
    2c22:	48 8d 85 e0 fb ff ff 	lea    -0x420(%rbp),%rax
    2c29:	48 89 c7             	mov    %rax,%rdi
    2c2c:	e8 bd 21 00 00       	callq  4dee <_ZNSt6vectorI11bomb_structSaIS0_EEC1Ev>
    2c31:	48 8d 85 00 fc ff ff 	lea    -0x400(%rbp),%rax
    2c38:	48 89 c7             	mov    %rax,%rdi
    2c3b:	e8 0e 22 00 00       	callq  4e4e <_ZNSt6vectorIA2_iSaIS0_EEC1Ev>
    2c40:	48 8d 3d de 63 00 00 	lea    0x63de(%rip),%rdi        # 9025 <_ZStL19piecewise_construct+0x1d>
    2c47:	e8 04 fa ff ff       	callq  2650 <puts@plt>
    2c4c:	48 8d 85 70 fc ff ff 	lea    -0x390(%rbp),%rax
    2c53:	48 89 c7             	mov    %rax,%rdi
    2c56:	e8 85 f9 ff ff       	callq  25e0 <_ZNSt7__cxx1112basic_stringIcSt11char_traitsIcESaIcEEC1Ev@plt>
    2c5b:	48 8d 85 70 fc ff ff 	lea    -0x390(%rbp),%rax
    2c62:	48 89 c6             	mov    %rax,%rsi
    2c65:	48 8d 3d d4 b3 00 00 	lea    0xb3d4(%rip),%rdi        # e040 <_ZSt3cin@@GLIBCXX_3.4>
    2c6c:	e8 5f f7 ff ff       	callq  23d0 <_ZSt7getlineIcSt11char_traitsIcESaIcEERSt13basic_istreamIT_T0_ES7_RNSt7__cxx1112basic_stringIS4_S5_T1_EE@plt>
    2c71:	48 8d 85 70 fc ff ff 	lea    -0x390(%rbp),%rax
    2c78:	48 89 c7             	mov    %rax,%rdi
    2c7b:	e8 10 f8 ff ff       	callq  2490 <_ZNKSt7__cxx1112basic_stringIcSt11char_traitsIcESaIcEE4sizeEv@plt>
    2c80:	48 85 c0             	test   %rax,%rax
    2c83:	0f 94 c0             	sete   %al
    2c86:	84 c0                	test   %al,%al
    2c88:	74 0a                	je     2c94 <main+0x112>
    2c8a:	bb 00 00 00 00       	mov    $0x0,%ebx
    2c8f:	e9 22 06 00 00       	jmpq   32b6 <main+0x734>
    2c94:	0f b6 85 37 fa ff ff 	movzbl -0x5c9(%rbp),%eax
    2c9b:	83 f0 01             	xor    $0x1,%eax
    2c9e:	84 c0                	test   %al,%al
    2ca0:	0f 84 3c 02 00 00    	je     2ee2 <main+0x360>
    2ca6:	48 8d 8d 70 fc ff ff 	lea    -0x390(%rbp),%rcx
    2cad:	48 8d 85 10 fe ff ff 	lea    -0x1f0(%rbp),%rax
    2cb4:	ba 08 00 00 00       	mov    $0x8,%edx
    2cb9:	48 89 ce             	mov    %rcx,%rsi
    2cbc:	48 89 c7             	mov    %rax,%rdi
    2cbf:	e8 cc f9 ff ff       	callq  2690 <_ZNSt7__cxx1119basic_istringstreamIcSt11char_traitsIcESaIcEEC1ERKNS_12basic_stringIcS2_S3_EESt13_Ios_Openmode@plt>
    2cc4:	48 8d 95 38 fa ff ff 	lea    -0x5c8(%rbp),%rdx
    2ccb:	48 8d 85 10 fe ff ff 	lea    -0x1f0(%rbp),%rax
    2cd2:	48 89 d6             	mov    %rdx,%rsi
    2cd5:	48 89 c7             	mov    %rax,%rdi
    2cd8:	e8 83 f7 ff ff       	callq  2460 <_ZNSirsERi@plt>
    2cdd:	48 8d 95 3c fa ff ff 	lea    -0x5c4(%rbp),%rdx
    2ce4:	48 8d 85 10 fe ff ff 	lea    -0x1f0(%rbp),%rax
    2ceb:	48 89 d6             	mov    %rdx,%rsi
    2cee:	48 89 c7             	mov    %rax,%rdi
    2cf1:	e8 6a f7 ff ff       	callq  2460 <_ZNSirsERi@plt>
    2cf6:	48 8d 95 40 fa ff ff 	lea    -0x5c0(%rbp),%rdx
    2cfd:	48 8d 85 10 fe ff ff 	lea    -0x1f0(%rbp),%rax
    2d04:	48 89 d6             	mov    %rdx,%rsi
    2d07:	48 89 c7             	mov    %rax,%rdi
    2d0a:	e8 51 f7 ff ff       	callq  2460 <_ZNSirsERi@plt>
    2d0f:	48 8d 95 44 fa ff ff 	lea    -0x5bc(%rbp),%rdx
    2d16:	48 8d 85 10 fe ff ff 	lea    -0x1f0(%rbp),%rax
    2d1d:	48 89 d6             	mov    %rdx,%rsi
    2d20:	48 89 c7             	mov    %rax,%rdi
    2d23:	e8 38 f7 ff ff       	callq  2460 <_ZNSirsERi@plt>
    2d28:	c6 85 37 fa ff ff 01 	movb   $0x1,-0x5c9(%rbp)
    2d2f:	8b 85 3c fa ff ff    	mov    -0x5c4(%rbp),%eax
    2d35:	48 98                	cltq   
    2d37:	48 c1 e0 03          	shl    $0x3,%rax
    2d3b:	48 89 c7             	mov    %rax,%rdi
    2d3e:	e8 7d f8 ff ff       	callq  25c0 <malloc@plt>
    2d43:	48 89 85 f8 fa ff ff 	mov    %rax,-0x508(%rbp)
    2d4a:	c7 85 50 fa ff ff 00 	movl   $0x0,-0x5b0(%rbp)
    2d51:	00 00 00 
    2d54:	8b 85 3c fa ff ff    	mov    -0x5c4(%rbp),%eax
    2d5a:	39 85 50 fa ff ff    	cmp    %eax,-0x5b0(%rbp)
    2d60:	7d 48                	jge    2daa <main+0x228>
    2d62:	8b 85 38 fa ff ff    	mov    -0x5c8(%rbp),%eax
    2d68:	48 63 d0             	movslq %eax,%rdx
    2d6b:	48 89 d0             	mov    %rdx,%rax
    2d6e:	48 01 c0             	add    %rax,%rax
    2d71:	48 01 d0             	add    %rdx,%rax
    2d74:	48 c1 e0 02          	shl    $0x2,%rax
    2d78:	48 89 c1             	mov    %rax,%rcx
    2d7b:	8b 85 50 fa ff ff    	mov    -0x5b0(%rbp),%eax
    2d81:	48 98                	cltq   
    2d83:	48 8d 14 c5 00 00 00 	lea    0x0(,%rax,8),%rdx
    2d8a:	00 
    2d8b:	48 8b 85 f8 fa ff ff 	mov    -0x508(%rbp),%rax
    2d92:	48 8d 1c 02          	lea    (%rdx,%rax,1),%rbx
    2d96:	48 89 cf             	mov    %rcx,%rdi
    2d99:	e8 22 f8 ff ff       	callq  25c0 <malloc@plt>
    2d9e:	48 89 03             	mov    %rax,(%rbx)
    2da1:	83 85 50 fa ff ff 01 	addl   $0x1,-0x5b0(%rbp)
    2da8:	eb aa                	jmp    2d54 <main+0x1d2>
    2daa:	8b 85 3c fa ff ff    	mov    -0x5c4(%rbp),%eax
    2db0:	48 98                	cltq   
    2db2:	48 c1 e0 03          	shl    $0x3,%rax
    2db6:	48 89 c7             	mov    %rax,%rdi
    2db9:	e8 02 f8 ff ff       	callq  25c0 <malloc@plt>
    2dbe:	48 89 85 00 fb ff ff 	mov    %rax,-0x500(%rbp)
    2dc5:	c7 85 54 fa ff ff 00 	movl   $0x0,-0x5ac(%rbp)
    2dcc:	00 00 00 
    2dcf:	8b 85 3c fa ff ff    	mov    -0x5c4(%rbp),%eax
    2dd5:	39 85 54 fa ff ff    	cmp    %eax,-0x5ac(%rbp)
    2ddb:	7d 48                	jge    2e25 <main+0x2a3>
    2ddd:	8b 85 38 fa ff ff    	mov    -0x5c8(%rbp),%eax
    2de3:	48 63 d0             	movslq %eax,%rdx
    2de6:	48 89 d0             	mov    %rdx,%rax
    2de9:	48 01 c0             	add    %rax,%rax
    2dec:	48 01 d0             	add    %rdx,%rax
    2def:	48 c1 e0 02          	shl    $0x2,%rax
    2df3:	48 89 c1             	mov    %rax,%rcx
    2df6:	8b 85 54 fa ff ff    	mov    -0x5ac(%rbp),%eax
    2dfc:	48 98                	cltq   
    2dfe:	48 8d 14 c5 00 00 00 	lea    0x0(,%rax,8),%rdx
    2e05:	00 
    2e06:	48 8b 85 00 fb ff ff 	mov    -0x500(%rbp),%rax
    2e0d:	48 8d 1c 02          	lea    (%rdx,%rax,1),%rbx
    2e11:	48 89 cf             	mov    %rcx,%rdi
    2e14:	e8 a7 f7 ff ff       	callq  25c0 <malloc@plt>
    2e19:	48 89 03             	mov    %rax,(%rbx)
    2e1c:	83 85 54 fa ff ff 01 	addl   $0x1,-0x5ac(%rbp)
    2e23:	eb aa                	jmp    2dcf <main+0x24d>
    2e25:	8b 85 3c fa ff ff    	mov    -0x5c4(%rbp),%eax
    2e2b:	48 98                	cltq   
    2e2d:	48 c1 e0 03          	shl    $0x3,%rax
    2e31:	48 89 c7             	mov    %rax,%rdi
    2e34:	e8 87 f7 ff ff       	callq  25c0 <malloc@plt>
    2e39:	48 89 85 08 fb ff ff 	mov    %rax,-0x4f8(%rbp)
    2e40:	c7 85 58 fa ff ff 00 	movl   $0x0,-0x5a8(%rbp)
    2e47:	00 00 00 
    2e4a:	8b 85 3c fa ff ff    	mov    -0x5c4(%rbp),%eax
    2e50:	39 85 58 fa ff ff    	cmp    %eax,-0x5a8(%rbp)
    2e56:	7d 48                	jge    2ea0 <main+0x31e>
    2e58:	8b 85 38 fa ff ff    	mov    -0x5c8(%rbp),%eax
    2e5e:	48 63 d0             	movslq %eax,%rdx
    2e61:	48 89 d0             	mov    %rdx,%rax
    2e64:	48 01 c0             	add    %rax,%rax
    2e67:	48 01 d0             	add    %rdx,%rax
    2e6a:	48 c1 e0 02          	shl    $0x2,%rax
    2e6e:	48 89 c1             	mov    %rax,%rcx
    2e71:	8b 85 58 fa ff ff    	mov    -0x5a8(%rbp),%eax
    2e77:	48 98                	cltq   
    2e79:	48 8d 14 c5 00 00 00 	lea    0x0(,%rax,8),%rdx
    2e80:	00 
    2e81:	48 8b 85 08 fb ff ff 	mov    -0x4f8(%rbp),%rax
    2e88:	48 8d 1c 02          	lea    (%rdx,%rax,1),%rbx
    2e8c:	48 89 cf             	mov    %rcx,%rdi
    2e8f:	e8 2c f7 ff ff       	callq  25c0 <malloc@plt>
    2e94:	48 89 03             	mov    %rax,(%rbx)
    2e97:	83 85 58 fa ff ff 01 	addl   $0x1,-0x5a8(%rbp)
    2e9e:	eb aa                	jmp    2e4a <main+0x2c8>
    2ea0:	8b b5 44 fa ff ff    	mov    -0x5bc(%rbp),%esi
    2ea6:	8b 8d 40 fa ff ff    	mov    -0x5c0(%rbp),%ecx
    2eac:	8b 95 3c fa ff ff    	mov    -0x5c4(%rbp),%edx
    2eb2:	8b 85 38 fa ff ff    	mov    -0x5c8(%rbp),%eax
    2eb8:	41 89 f0             	mov    %esi,%r8d
    2ebb:	89 c6                	mov    %eax,%esi
    2ebd:	48 8d 3d 64 61 00 00 	lea    0x6164(%rip),%rdi        # 9028 <_ZStL19piecewise_construct+0x20>
    2ec4:	b8 00 00 00 00       	mov    $0x0,%eax
    2ec9:	e8 d2 f4 ff ff       	callq  23a0 <printf@plt>
    2ece:	48 8d 85 10 fe ff ff 	lea    -0x1f0(%rbp),%rax
    2ed5:	48 89 c7             	mov    %rax,%rdi
    2ed8:	e8 63 f5 ff ff       	callq  2440 <_ZNSt7__cxx1119basic_istringstreamIcSt11char_traitsIcESaIcEED1Ev@plt>
    2edd:	e9 cf 03 00 00       	jmpq   32b1 <main+0x72f>
    2ee2:	8b 85 40 fa ff ff    	mov    -0x5c0(%rbp),%eax
    2ee8:	39 85 48 fa ff ff    	cmp    %eax,-0x5b8(%rbp)
    2eee:	0f 8d 98 00 00 00    	jge    2f8c <main+0x40a>
    2ef4:	48 8d 8d 70 fc ff ff 	lea    -0x390(%rbp),%rcx
    2efb:	48 8d 85 10 fe ff ff 	lea    -0x1f0(%rbp),%rax
    2f02:	ba 08 00 00 00       	mov    $0x8,%edx
    2f07:	48 89 ce             	mov    %rcx,%rsi
    2f0a:	48 89 c7             	mov    %rax,%rdi
    2f0d:	e8 7e f7 ff ff       	callq  2690 <_ZNSt7__cxx1119basic_istringstreamIcSt11char_traitsIcESaIcEEC1ERKNS_12basic_stringIcS2_S3_EESt13_Ios_Openmode@plt>
    2f12:	48 8d 95 40 fc ff ff 	lea    -0x3c0(%rbp),%rdx
    2f19:	48 8d 85 10 fe ff ff 	lea    -0x1f0(%rbp),%rax
    2f20:	48 89 d6             	mov    %rdx,%rsi
    2f23:	48 89 c7             	mov    %rax,%rdi
    2f26:	e8 85 f4 ff ff       	callq  23b0 <_ZNSirsERj@plt>
    2f2b:	48 8d 85 40 fc ff ff 	lea    -0x3c0(%rbp),%rax
    2f32:	48 8d 50 04          	lea    0x4(%rax),%rdx
    2f36:	48 8d 85 10 fe ff ff 	lea    -0x1f0(%rbp),%rax
    2f3d:	48 89 d6             	mov    %rdx,%rsi
    2f40:	48 89 c7             	mov    %rax,%rdi
    2f43:	e8 68 f4 ff ff       	callq  23b0 <_ZNSirsERj@plt>
    2f48:	48 8d 85 40 fc ff ff 	lea    -0x3c0(%rbp),%rax
    2f4f:	48 8d 50 08          	lea    0x8(%rax),%rdx
    2f53:	48 8d 85 10 fe ff ff 	lea    -0x1f0(%rbp),%rax
    2f5a:	48 89 d6             	mov    %rdx,%rsi
    2f5d:	48 89 c7             	mov    %rax,%rdi
    2f60:	e8 fb f4 ff ff       	callq  2460 <_ZNSirsERi@plt>
    2f65:	83 85 48 fa ff ff 01 	addl   $0x1,-0x5b8(%rbp)
    2f6c:	48 8d 3d e3 60 00 00 	lea    0x60e3(%rip),%rdi        # 9056 <_ZStL19piecewise_construct+0x4e>
    2f73:	e8 d8 f6 ff ff       	callq  2650 <puts@plt>
    2f78:	48 8d 85 10 fe ff ff 	lea    -0x1f0(%rbp),%rax
    2f7f:	48 89 c7             	mov    %rax,%rdi
    2f82:	e8 b9 f4 ff ff       	callq  2440 <_ZNSt7__cxx1119basic_istringstreamIcSt11char_traitsIcESaIcEED1Ev@plt>
    2f87:	e9 25 03 00 00       	jmpq   32b1 <main+0x72f>
    2f8c:	8b 85 44 fa ff ff    	mov    -0x5bc(%rbp),%eax
    2f92:	39 85 4c fa ff ff    	cmp    %eax,-0x5b4(%rbp)
    2f98:	0f 8d 13 03 00 00    	jge    32b1 <main+0x72f>
    2f9e:	48 8d 8d 70 fc ff ff 	lea    -0x390(%rbp),%rcx
    2fa5:	48 8d 85 90 fc ff ff 	lea    -0x370(%rbp),%rax
    2fac:	ba 08 00 00 00       	mov    $0x8,%edx
    2fb1:	48 89 ce             	mov    %rcx,%rsi
    2fb4:	48 89 c7             	mov    %rax,%rdi
    2fb7:	e8 d4 f6 ff ff       	callq  2690 <_ZNSt7__cxx1119basic_istringstreamIcSt11char_traitsIcESaIcEEC1ERKNS_12basic_stringIcS2_S3_EESt13_Ios_Openmode@plt>
    2fbc:	48 8d 85 68 fc ff ff 	lea    -0x398(%rbp),%rax
    2fc3:	48 89 c1             	mov    %rax,%rcx
    2fc6:	ba 01 00 00 00       	mov    $0x1,%edx
    2fcb:	be 01 00 00 00       	mov    $0x1,%esi
    2fd0:	bf 01 00 00 00       	mov    $0x1,%edi
    2fd5:	e8 16 f5 ff ff       	callq  24f0 <socketpair@plt>
    2fda:	48 8d 95 40 fc ff ff 	lea    -0x3c0(%rbp),%rdx
    2fe1:	48 8d 85 90 fc ff ff 	lea    -0x370(%rbp),%rax
    2fe8:	48 89 d6             	mov    %rdx,%rsi
    2feb:	48 89 c7             	mov    %rax,%rdi
    2fee:	e8 bd f3 ff ff       	callq  23b0 <_ZNSirsERj@plt>
    2ff3:	48 8d 85 40 fc ff ff 	lea    -0x3c0(%rbp),%rax
    2ffa:	48 8d 50 04          	lea    0x4(%rax),%rdx
    2ffe:	48 8d 85 90 fc ff ff 	lea    -0x370(%rbp),%rax
    3005:	48 89 d6             	mov    %rdx,%rsi
    3008:	48 89 c7             	mov    %rax,%rdi
    300b:	e8 a0 f3 ff ff       	callq  23b0 <_ZNSirsERj@plt>
    3010:	48 8d 85 40 fc ff ff 	lea    -0x3c0(%rbp),%rax
    3017:	48 8d 50 10          	lea    0x10(%rax),%rdx
    301b:	48 8d 85 90 fc ff ff 	lea    -0x370(%rbp),%rax
    3022:	48 89 d6             	mov    %rdx,%rsi
    3025:	48 89 c7             	mov    %rax,%rdi
    3028:	e8 33 f4 ff ff       	callq  2460 <_ZNSirsERi@plt>
    302d:	8b 85 68 fc ff ff    	mov    -0x398(%rbp),%eax
    3033:	89 85 48 fc ff ff    	mov    %eax,-0x3b8(%rbp)
    3039:	8b 85 6c fc ff ff    	mov    -0x394(%rbp),%eax
    303f:	89 85 4c fc ff ff    	mov    %eax,-0x3b4(%rbp)
    3045:	c6 85 54 fc ff ff 01 	movb   $0x1,-0x3ac(%rbp)
    304c:	48 8d 85 70 fc ff ff 	lea    -0x390(%rbp),%rax
    3053:	48 89 c6             	mov    %rax,%rsi
    3056:	48 8d 3d e3 af 00 00 	lea    0xafe3(%rip),%rdi        # e040 <_ZSt3cin@@GLIBCXX_3.4>
    305d:	e8 6e f3 ff ff       	callq  23d0 <_ZSt7getlineIcSt11char_traitsIcESaIcEERSt13basic_istreamIT_T0_ES7_RNSt7__cxx1112basic_stringIS4_S5_T1_EE@plt>
    3062:	48 8d 8d 70 fc ff ff 	lea    -0x390(%rbp),%rcx
    3069:	48 8d 85 10 fe ff ff 	lea    -0x1f0(%rbp),%rax
    3070:	ba 08 00 00 00       	mov    $0x8,%edx
    3075:	48 89 ce             	mov    %rcx,%rsi
    3078:	48 89 c7             	mov    %rax,%rdi
    307b:	e8 10 f6 ff ff       	callq  2690 <_ZNSt7__cxx1119basic_istringstreamIcSt11char_traitsIcESaIcEEC1ERKNS_12basic_stringIcS2_S3_EESt13_Ios_Openmode@plt>
    3080:	e8 6b f3 ff ff       	callq  23f0 <fork@plt>
    3085:	89 85 a8 fa ff ff    	mov    %eax,-0x558(%rbp)
    308b:	83 bd a8 fa ff ff 00 	cmpl   $0x0,-0x558(%rbp)
    3092:	0f 95 c0             	setne  %al
    3095:	84 c0                	test   %al,%al
    3097:	74 5b                	je     30f4 <main+0x572>
    3099:	8b 85 a8 fa ff ff    	mov    -0x558(%rbp),%eax
    309f:	89 85 58 fc ff ff    	mov    %eax,-0x3a8(%rbp)
    30a5:	48 8d 95 40 fc ff ff 	lea    -0x3c0(%rbp),%rdx
    30ac:	48 8d 85 c0 fb ff ff 	lea    -0x440(%rbp),%rax
    30b3:	48 89 d6             	mov    %rdx,%rsi
    30b6:	48 89 c7             	mov    %rax,%rdi
    30b9:	e8 7a 24 00 00       	callq  5538 <_ZNSt6vectorI11bomber_dataSaIS0_EE9push_backERKS0_>
    30be:	8b 85 44 fc ff ff    	mov    -0x3bc(%rbp),%eax
    30c4:	89 c2                	mov    %eax,%edx
    30c6:	8b 85 40 fc ff ff    	mov    -0x3c0(%rbp),%eax
    30cc:	89 c6                	mov    %eax,%esi
    30ce:	48 8b 85 f8 fa ff ff 	mov    -0x508(%rbp),%rax
    30d5:	b9 00 00 00 00       	mov    $0x0,%ecx
    30da:	48 89 c7             	mov    %rax,%rdi
    30dd:	e8 48 f7 ff ff       	callq  282a <_Z12set_map_itemPP15object_map_dataii11object_type>
    30e2:	8b 85 68 fc ff ff    	mov    -0x398(%rbp),%eax
    30e8:	89 c7                	mov    %eax,%edi
    30ea:	e8 f1 f5 ff ff       	callq  26e0 <close@plt>
    30ef:	e9 98 01 00 00       	jmpq   328c <main+0x70a>
    30f4:	8b 85 50 fc ff ff    	mov    -0x3b0(%rbp),%eax
    30fa:	83 c0 01             	add    $0x1,%eax
    30fd:	48 98                	cltq   
    30ff:	48 c1 e0 03          	shl    $0x3,%rax
    3103:	48 89 c7             	mov    %rax,%rdi
    3106:	e8 b5 f4 ff ff       	callq  25c0 <malloc@plt>
    310b:	48 89 85 10 fb ff ff 	mov    %rax,-0x4f0(%rbp)
    3112:	bf 04 00 00 00       	mov    $0x4,%edi
    3117:	e8 a4 f4 ff ff       	callq  25c0 <malloc@plt>
    311c:	48 89 c2             	mov    %rax,%rdx
    311f:	48 8b 85 10 fb ff ff 	mov    -0x4f0(%rbp),%rax
    3126:	48 89 10             	mov    %rdx,(%rax)
    3129:	48 8b 85 10 fb ff ff 	mov    -0x4f0(%rbp),%rax
    3130:	48 8d 58 08          	lea    0x8(%rax),%rbx
    3134:	bf 04 00 00 00       	mov    $0x4,%edi
    3139:	e8 82 f4 ff ff       	callq  25c0 <malloc@plt>
    313e:	48 89 03             	mov    %rax,(%rbx)
    3141:	48 8b 85 10 fb ff ff 	mov    -0x4f0(%rbp),%rax
    3148:	48 8d 58 10          	lea    0x10(%rax),%rbx
    314c:	bf 04 00 00 00       	mov    $0x4,%edi
    3151:	e8 6a f4 ff ff       	callq  25c0 <malloc@plt>
    3156:	48 89 03             	mov    %rax,(%rbx)
    3159:	48 8b 85 10 fb ff ff 	mov    -0x4f0(%rbp),%rax
    3160:	48 8d 58 18          	lea    0x18(%rax),%rbx
    3164:	bf 04 00 00 00       	mov    $0x4,%edi
    3169:	e8 52 f4 ff ff       	callq  25c0 <malloc@plt>
    316e:	48 89 03             	mov    %rax,(%rbx)
    3171:	48 8b 85 10 fb ff ff 	mov    -0x4f0(%rbp),%rax
    3178:	48 8b 10             	mov    (%rax),%rdx
    317b:	48 8d 85 10 fe ff ff 	lea    -0x1f0(%rbp),%rax
    3182:	48 89 d6             	mov    %rdx,%rsi
    3185:	48 89 c7             	mov    %rax,%rdi
    3188:	e8 53 f2 ff ff       	callq  23e0 <_ZStrsIcSt11char_traitsIcEERSt13basic_istreamIT_T0_ES6_PS3_@plt>
    318d:	48 8b 85 10 fb ff ff 	mov    -0x4f0(%rbp),%rax
    3194:	48 83 c0 08          	add    $0x8,%rax
    3198:	48 8b 10             	mov    (%rax),%rdx
    319b:	48 8d 85 10 fe ff ff 	lea    -0x1f0(%rbp),%rax
    31a2:	48 89 d6             	mov    %rdx,%rsi
    31a5:	48 89 c7             	mov    %rax,%rdi
    31a8:	e8 33 f2 ff ff       	callq  23e0 <_ZStrsIcSt11char_traitsIcEERSt13basic_istreamIT_T0_ES6_PS3_@plt>
    31ad:	48 8b 85 10 fb ff ff 	mov    -0x4f0(%rbp),%rax
    31b4:	48 83 c0 10          	add    $0x10,%rax
    31b8:	48 8b 10             	mov    (%rax),%rdx
    31bb:	48 8d 85 10 fe ff ff 	lea    -0x1f0(%rbp),%rax
    31c2:	48 89 d6             	mov    %rdx,%rsi
    31c5:	48 89 c7             	mov    %rax,%rdi
    31c8:	e8 13 f2 ff ff       	callq  23e0 <_ZStrsIcSt11char_traitsIcEERSt13basic_istreamIT_T0_ES6_PS3_@plt>
    31cd:	48 8b 85 10 fb ff ff 	mov    -0x4f0(%rbp),%rax
    31d4:	48 83 c0 18          	add    $0x18,%rax
    31d8:	48 8b 10             	mov    (%rax),%rdx
    31db:	48 8d 85 10 fe ff ff 	lea    -0x1f0(%rbp),%rax
    31e2:	48 89 d6             	mov    %rdx,%rsi
    31e5:	48 89 c7             	mov    %rax,%rdi
    31e8:	e8 f3 f1 ff ff       	callq  23e0 <_ZStrsIcSt11char_traitsIcEERSt13basic_istreamIT_T0_ES6_PS3_@plt>
    31ed:	48 8b 85 10 fb ff ff 	mov    -0x4f0(%rbp),%rax
    31f4:	48 83 c0 20          	add    $0x20,%rax
    31f8:	48 c7 00 00 00 00 00 	movq   $0x0,(%rax)
    31ff:	8b 85 68 fc ff ff    	mov    -0x398(%rbp),%eax
    3205:	be 00 00 00 00       	mov    $0x0,%esi
    320a:	89 c7                	mov    %eax,%edi
    320c:	e8 ff f2 ff ff       	callq  2510 <dup2@plt>
    3211:	8b 85 68 fc ff ff    	mov    -0x398(%rbp),%eax
    3217:	be 01 00 00 00       	mov    $0x1,%esi
    321c:	89 c7                	mov    %eax,%edi
    321e:	e8 ed f2 ff ff       	callq  2510 <dup2@plt>
    3223:	8b 85 68 fc ff ff    	mov    -0x398(%rbp),%eax
    3229:	89 c7                	mov    %eax,%edi
    322b:	e8 b0 f4 ff ff       	callq  26e0 <close@plt>
    3230:	8b 85 6c fc ff ff    	mov    -0x394(%rbp),%eax
    3236:	89 c7                	mov    %eax,%edi
    3238:	e8 a3 f4 ff ff       	callq  26e0 <close@plt>
    323d:	48 8b 85 10 fb ff ff 	mov    -0x4f0(%rbp),%rax
    3244:	48 8b 00             	mov    (%rax),%rax
    3247:	48 8b 95 10 fb ff ff 	mov    -0x4f0(%rbp),%rdx
    324e:	48 89 d6             	mov    %rdx,%rsi
    3251:	48 89 c7             	mov    %rax,%rdi
    3254:	e8 57 f2 ff ff       	callq  24b0 <execvp@plt>
    3259:	83 f8 ff             	cmp    $0xffffffff,%eax
    325c:	0f 94 c0             	sete   %al
    325f:	84 c0                	test   %al,%al
    3261:	74 29                	je     328c <main+0x70a>
    3263:	48 8d 45 90          	lea    -0x70(%rbp),%rax
    3267:	48 8d 15 f4 5d 00 00 	lea    0x5df4(%rip),%rdx        # 9062 <_ZStL19piecewise_construct+0x5a>
    326e:	be 40 00 00 00       	mov    $0x40,%esi
    3273:	48 89 c7             	mov    %rax,%rdi
    3276:	b8 00 00 00 00       	mov    $0x0,%eax
    327b:	e8 e0 f3 ff ff       	callq  2660 <snprintf@plt>
    3280:	48 8d 45 90          	lea    -0x70(%rbp),%rax
    3284:	48 89 c7             	mov    %rax,%rdi
    3287:	e8 44 f2 ff ff       	callq  24d0 <perror@plt>
    328c:	83 85 4c fa ff ff 01 	addl   $0x1,-0x5b4(%rbp)
    3293:	48 8d 85 10 fe ff ff 	lea    -0x1f0(%rbp),%rax
    329a:	48 89 c7             	mov    %rax,%rdi
    329d:	e8 9e f1 ff ff       	callq  2440 <_ZNSt7__cxx1119basic_istringstreamIcSt11char_traitsIcESaIcEED1Ev@plt>
    32a2:	48 8d 85 90 fc ff ff 	lea    -0x370(%rbp),%rax
    32a9:	48 89 c7             	mov    %rax,%rdi
    32ac:	e8 8f f1 ff ff       	callq  2440 <_ZNSt7__cxx1119basic_istringstreamIcSt11char_traitsIcESaIcEED1Ev@plt>
    32b1:	bb 01 00 00 00       	mov    $0x1,%ebx
    32b6:	48 8d 85 70 fc ff ff 	lea    -0x390(%rbp),%rax
    32bd:	48 89 c7             	mov    %rax,%rdi
    32c0:	e8 ab f1 ff ff       	callq  2470 <_ZNSt7__cxx1112basic_stringIcSt11char_traitsIcESaIcEED1Ev@plt>
    32c5:	83 fb 01             	cmp    $0x1,%ebx
    32c8:	75 05                	jne    32cf <main+0x74d>
    32ca:	e9 7d f9 ff ff       	jmpq   2c4c <main+0xca>
    32cf:	48 8d 85 c0 fb ff ff 	lea    -0x440(%rbp),%rax
    32d6:	48 89 c7             	mov    %rax,%rdi
    32d9:	e8 da 22 00 00       	callq  55b8 <_ZNKSt6vectorI11bomber_dataSaIS0_EE4sizeEv>
    32de:	48 85 c0             	test   %rax,%rax
    32e1:	75 14                	jne    32f7 <main+0x775>
    32e3:	48 8d 85 e0 fb ff ff 	lea    -0x420(%rbp),%rax
    32ea:	48 89 c7             	mov    %rax,%rdi
    32ed:	e8 ee 22 00 00       	callq  55e0 <_ZNKSt6vectorI11bomb_structSaIS0_EE4sizeEv>
    32f2:	48 85 c0             	test   %rax,%rax
    32f5:	74 07                	je     32fe <main+0x77c>
    32f7:	b8 01 00 00 00       	mov    $0x1,%eax
    32fc:	eb 05                	jmp    3303 <main+0x781>
    32fe:	b8 00 00 00 00       	mov    $0x0,%eax
    3303:	84 c0                	test   %al,%al
    3305:	0f 84 6b 15 00 00    	je     4876 <main+0x1cf4>
    330b:	48 8d 85 e0 fb ff ff 	lea    -0x420(%rbp),%rax
    3312:	48 89 c7             	mov    %rax,%rdi
    3315:	e8 fe 22 00 00       	callq  5618 <_ZNSt6vectorI11bomb_structSaIS0_EE5beginEv>
    331a:	48 89 85 50 fb ff ff 	mov    %rax,-0x4b0(%rbp)
    3321:	48 8d 85 e0 fb ff ff 	lea    -0x420(%rbp),%rax
    3328:	48 89 c7             	mov    %rax,%rdi
    332b:	e8 34 23 00 00       	callq  5664 <_ZNSt6vectorI11bomb_structSaIS0_EE3endEv>
    3330:	48 89 85 40 fc ff ff 	mov    %rax,-0x3c0(%rbp)
    3337:	48 8d 95 40 fc ff ff 	lea    -0x3c0(%rbp),%rdx
    333e:	48 8d 85 50 fb ff ff 	lea    -0x4b0(%rbp),%rax
    3345:	48 89 d6             	mov    %rdx,%rsi
    3348:	48 89 c7             	mov    %rax,%rdi
    334b:	e8 64 23 00 00       	callq  56b4 <_ZN9__gnu_cxxneIP11bomb_structSt6vectorIS1_SaIS1_EEEEbRKNS_17__normal_iteratorIT_T0_EESB_>
    3350:	84 c0                	test   %al,%al
    3352:	0f 84 64 05 00 00    	je     38bc <main+0xd3a>
    3358:	48 8d 85 e0 fb ff ff 	lea    -0x420(%rbp),%rax
    335f:	48 89 c7             	mov    %rax,%rdi
    3362:	e8 79 22 00 00       	callq  55e0 <_ZNKSt6vectorI11bomb_structSaIS0_EE4sizeEv>
    3367:	48 85 c0             	test   %rax,%rax
    336a:	0f 94 c0             	sete   %al
    336d:	84 c0                	test   %al,%al
    336f:	74 11                	je     3382 <main+0x800>
    3371:	48 8d 3d f6 5c 00 00 	lea    0x5cf6(%rip),%rdi        # 906e <_ZStL19piecewise_construct+0x66>
    3378:	e8 d3 f2 ff ff       	callq  2650 <puts@plt>
    337d:	e9 3a 05 00 00       	jmpq   38bc <main+0xd3a>
    3382:	b8 00 00 00 00       	mov    $0x0,%eax
    3387:	b9 10 00 00 00       	mov    $0x10,%ecx
    338c:	48 8d 95 10 fe ff ff 	lea    -0x1f0(%rbp),%rdx
    3393:	48 89 d7             	mov    %rdx,%rdi
    3396:	fc                   	cld    
    3397:	f3 48 ab             	rep stos %rax,%es:(%rdi)
    339a:	89 f8                	mov    %edi,%eax
    339c:	89 ca                	mov    %ecx,%edx
    339e:	89 95 ac fa ff ff    	mov    %edx,-0x554(%rbp)
    33a4:	89 85 b0 fa ff ff    	mov    %eax,-0x550(%rbp)
    33aa:	48 8d 85 50 fb ff ff 	lea    -0x4b0(%rbp),%rax
    33b1:	48 89 c7             	mov    %rax,%rdi
    33b4:	e8 a1 23 00 00       	callq  575a <_ZNK9__gnu_cxx17__normal_iteratorIP11bomb_structSt6vectorIS1_SaIS1_EEEdeEv>
    33b9:	8b 40 20             	mov    0x20(%rax),%eax
    33bc:	99                   	cltd   
    33bd:	c1 ea 1a             	shr    $0x1a,%edx
    33c0:	01 d0                	add    %edx,%eax
    33c2:	83 e0 3f             	and    $0x3f,%eax
    33c5:	29 d0                	sub    %edx,%eax
    33c7:	ba 01 00 00 00       	mov    $0x1,%edx
    33cc:	89 c1                	mov    %eax,%ecx
    33ce:	48 d3 e2             	shl    %cl,%rdx
    33d1:	48 89 d0             	mov    %rdx,%rax
    33d4:	48 89 c3             	mov    %rax,%rbx
    33d7:	48 8d 85 50 fb ff ff 	lea    -0x4b0(%rbp),%rax
    33de:	48 89 c7             	mov    %rax,%rdi
    33e1:	e8 74 23 00 00       	callq  575a <_ZNK9__gnu_cxx17__normal_iteratorIP11bomb_structSt6vectorIS1_SaIS1_EEEdeEv>
    33e6:	8b 40 20             	mov    0x20(%rax),%eax
    33e9:	8d 50 3f             	lea    0x3f(%rax),%edx
    33ec:	85 c0                	test   %eax,%eax
    33ee:	0f 48 c2             	cmovs  %edx,%eax
    33f1:	c1 f8 06             	sar    $0x6,%eax
    33f4:	89 c1                	mov    %eax,%ecx
    33f6:	48 63 c1             	movslq %ecx,%rax
    33f9:	48 8b 84 c5 10 fe ff 	mov    -0x1f0(%rbp,%rax,8),%rax
    3400:	ff 
    3401:	48 09 c3             	or     %rax,%rbx
    3404:	48 89 da             	mov    %rbx,%rdx
    3407:	48 63 c1             	movslq %ecx,%rax
    340a:	48 89 94 c5 10 fe ff 	mov    %rdx,-0x1f0(%rbp,%rax,8)
    3411:	ff 
    3412:	48 c7 85 20 fc ff ff 	movq   $0x0,-0x3e0(%rbp)
    3419:	00 00 00 00 
    341d:	48 c7 85 28 fc ff ff 	movq   $0x3e8,-0x3d8(%rbp)
    3424:	e8 03 00 00 
    3428:	48 8d 85 50 fb ff ff 	lea    -0x4b0(%rbp),%rax
    342f:	48 89 c7             	mov    %rax,%rdi
    3432:	e8 23 23 00 00       	callq  575a <_ZNK9__gnu_cxx17__normal_iteratorIP11bomb_structSt6vectorIS1_SaIS1_EEEdeEv>
    3437:	8b 40 20             	mov    0x20(%rax),%eax
    343a:	8d 78 01             	lea    0x1(%rax),%edi
    343d:	48 8d 95 20 fc ff ff 	lea    -0x3e0(%rbp),%rdx
    3444:	48 8d 85 10 fe ff ff 	lea    -0x1f0(%rbp),%rax
    344b:	49 89 d0             	mov    %rdx,%r8
    344e:	b9 00 00 00 00       	mov    $0x0,%ecx
    3453:	ba 00 00 00 00       	mov    $0x0,%edx
    3458:	48 89 c6             	mov    %rax,%rsi
    345b:	e8 d0 f0 ff ff       	callq  2530 <select@plt>
    3460:	89 85 b4 fa ff ff    	mov    %eax,-0x54c(%rbp)
    3466:	83 bd b4 fa ff ff 00 	cmpl   $0x0,-0x54c(%rbp)
    346d:	0f 84 30 04 00 00    	je     38a3 <main+0xd21>
    3473:	48 8d 85 50 fb ff ff 	lea    -0x4b0(%rbp),%rax
    347a:	48 89 c7             	mov    %rax,%rdi
    347d:	e8 d8 22 00 00       	callq  575a <_ZNK9__gnu_cxx17__normal_iteratorIP11bomb_structSt6vectorIS1_SaIS1_EEEdeEv>
    3482:	8b 40 20             	mov    0x20(%rax),%eax
    3485:	48 8d 95 40 fc ff ff 	lea    -0x3c0(%rbp),%rdx
    348c:	48 89 d6             	mov    %rdx,%rsi
    348f:	89 c7                	mov    %eax,%edi
    3491:	e8 a6 55 00 00       	callq  8a3c <_Z9read_dataiP16incoming_message>
    3496:	85 c0                	test   %eax,%eax
    3498:	0f 9f c0             	setg   %al
    349b:	84 c0                	test   %al,%al
    349d:	0f 84 00 04 00 00    	je     38a3 <main+0xd21>
    34a3:	8b 85 40 fc ff ff    	mov    -0x3c0(%rbp),%eax
    34a9:	83 f8 04             	cmp    $0x4,%eax
    34ac:	0f 85 f1 03 00 00    	jne    38a3 <main+0xd21>
    34b2:	48 8d 85 40 fc ff ff 	lea    -0x3c0(%rbp),%rax
    34b9:	48 89 85 78 fb ff ff 	mov    %rax,-0x488(%rbp)
    34c0:	48 8d 85 50 fb ff ff 	lea    -0x4b0(%rbp),%rax
    34c7:	48 89 c7             	mov    %rax,%rdi
    34ca:	e8 8b 22 00 00       	callq  575a <_ZNK9__gnu_cxx17__normal_iteratorIP11bomb_structSt6vectorIS1_SaIS1_EEEdeEv>
    34cf:	8b 40 18             	mov    0x18(%rax),%eax
    34d2:	89 85 70 fb ff ff    	mov    %eax,-0x490(%rbp)
    34d8:	48 8d 3d 96 5b 00 00 	lea    0x5b96(%rip),%rdi        # 9075 <_ZStL19piecewise_construct+0x6d>
    34df:	e8 6c f1 ff ff       	callq  2650 <puts@plt>
    34e4:	48 8d 85 70 fb ff ff 	lea    -0x490(%rbp),%rax
    34eb:	b9 00 00 00 00       	mov    $0x0,%ecx
    34f0:	ba 00 00 00 00       	mov    $0x0,%edx
    34f5:	be 00 00 00 00       	mov    $0x0,%esi
    34fa:	48 89 c7             	mov    %rax,%rdi
    34fd:	e8 9d 51 00 00       	callq  869f <_Z12print_outputP22incoming_message_printP22outgoing_message_printP13obstacle_dataP11object_data>
    3502:	48 8d 85 50 fb ff ff 	lea    -0x4b0(%rbp),%rax
    3509:	48 89 c7             	mov    %rax,%rdi
    350c:	e8 49 22 00 00       	callq  575a <_ZNK9__gnu_cxx17__normal_iteratorIP11bomb_structSt6vectorIS1_SaIS1_EEEdeEv>
    3511:	8b 40 18             	mov    0x18(%rax),%eax
    3514:	be 09 00 00 00       	mov    $0x9,%esi
    3519:	89 c7                	mov    %eax,%edi
    351b:	e8 e0 f0 ff ff       	callq  2600 <kill@plt>
    3520:	89 85 b8 fa ff ff    	mov    %eax,-0x548(%rbp)
    3526:	48 8d 85 50 fb ff ff 	lea    -0x4b0(%rbp),%rax
    352d:	48 89 c7             	mov    %rax,%rdi
    3530:	e8 25 22 00 00       	callq  575a <_ZNK9__gnu_cxx17__normal_iteratorIP11bomb_structSt6vectorIS1_SaIS1_EEEdeEv>
    3535:	8b 58 04             	mov    0x4(%rax),%ebx
    3538:	48 8d 85 50 fb ff ff 	lea    -0x4b0(%rbp),%rax
    353f:	48 89 c7             	mov    %rax,%rdi
    3542:	e8 13 22 00 00       	callq  575a <_ZNK9__gnu_cxx17__normal_iteratorIP11bomb_structSt6vectorIS1_SaIS1_EEEdeEv>
    3547:	48 8b 40 08          	mov    0x8(%rax),%rax
    354b:	29 c3                	sub    %eax,%ebx
    354d:	89 d8                	mov    %ebx,%eax
    354f:	89 85 5c fa ff ff    	mov    %eax,-0x5a4(%rbp)
    3555:	48 8d 85 50 fb ff ff 	lea    -0x4b0(%rbp),%rax
    355c:	48 89 c7             	mov    %rax,%rdi
    355f:	e8 f6 21 00 00       	callq  575a <_ZNK9__gnu_cxx17__normal_iteratorIP11bomb_structSt6vectorIS1_SaIS1_EEEdeEv>
    3564:	8b 18                	mov    (%rax),%ebx
    3566:	48 8d 85 50 fb ff ff 	lea    -0x4b0(%rbp),%rax
    356d:	48 89 c7             	mov    %rax,%rdi
    3570:	e8 e5 21 00 00       	callq  575a <_ZNK9__gnu_cxx17__normal_iteratorIP11bomb_structSt6vectorIS1_SaIS1_EEEdeEv>
    3575:	48 8b 40 08          	mov    0x8(%rax),%rax
    3579:	29 c3                	sub    %eax,%ebx
    357b:	89 d8                	mov    %ebx,%eax
    357d:	89 85 60 fa ff ff    	mov    %eax,-0x5a0(%rbp)
    3583:	48 8d 85 50 fb ff ff 	lea    -0x4b0(%rbp),%rax
    358a:	48 89 c7             	mov    %rax,%rdi
    358d:	e8 c8 21 00 00       	callq  575a <_ZNK9__gnu_cxx17__normal_iteratorIP11bomb_structSt6vectorIS1_SaIS1_EEEdeEv>
    3592:	8b 58 04             	mov    0x4(%rax),%ebx
    3595:	48 8d 85 50 fb ff ff 	lea    -0x4b0(%rbp),%rax
    359c:	48 89 c7             	mov    %rax,%rdi
    359f:	e8 b6 21 00 00       	callq  575a <_ZNK9__gnu_cxx17__normal_iteratorIP11bomb_structSt6vectorIS1_SaIS1_EEEdeEv>
    35a4:	48 8b 40 08          	mov    0x8(%rax),%rax
    35a8:	01 d8                	add    %ebx,%eax
    35aa:	89 85 64 fa ff ff    	mov    %eax,-0x59c(%rbp)
    35b0:	48 8d 85 50 fb ff ff 	lea    -0x4b0(%rbp),%rax
    35b7:	48 89 c7             	mov    %rax,%rdi
    35ba:	e8 9b 21 00 00       	callq  575a <_ZNK9__gnu_cxx17__normal_iteratorIP11bomb_structSt6vectorIS1_SaIS1_EEEdeEv>
    35bf:	8b 18                	mov    (%rax),%ebx
    35c1:	48 8d 85 50 fb ff ff 	lea    -0x4b0(%rbp),%rax
    35c8:	48 89 c7             	mov    %rax,%rdi
    35cb:	e8 8a 21 00 00       	callq  575a <_ZNK9__gnu_cxx17__normal_iteratorIP11bomb_structSt6vectorIS1_SaIS1_EEEdeEv>
    35d0:	48 8b 40 08          	mov    0x8(%rax),%rax
    35d4:	01 d8                	add    %ebx,%eax
    35d6:	89 85 68 fa ff ff    	mov    %eax,-0x598(%rbp)
    35dc:	83 bd 5c fa ff ff 00 	cmpl   $0x0,-0x5a4(%rbp)
    35e3:	79 0a                	jns    35ef <main+0xa6d>
    35e5:	c7 85 5c fa ff ff 00 	movl   $0x0,-0x5a4(%rbp)
    35ec:	00 00 00 
    35ef:	83 bd 60 fa ff ff 00 	cmpl   $0x0,-0x5a0(%rbp)
    35f6:	79 0a                	jns    3602 <main+0xa80>
    35f8:	c7 85 60 fa ff ff 00 	movl   $0x0,-0x5a0(%rbp)
    35ff:	00 00 00 
    3602:	8b 85 3c fa ff ff    	mov    -0x5c4(%rbp),%eax
    3608:	39 85 64 fa ff ff    	cmp    %eax,-0x59c(%rbp)
    360e:	7c 0f                	jl     361f <main+0xa9d>
    3610:	8b 85 3c fa ff ff    	mov    -0x5c4(%rbp),%eax
    3616:	83 e8 01             	sub    $0x1,%eax
    3619:	89 85 64 fa ff ff    	mov    %eax,-0x59c(%rbp)
    361f:	8b 85 38 fa ff ff    	mov    -0x5c8(%rbp),%eax
    3625:	39 85 68 fa ff ff    	cmp    %eax,-0x598(%rbp)
    362b:	7c 0f                	jl     363c <main+0xaba>
    362d:	8b 85 38 fa ff ff    	mov    -0x5c8(%rbp),%eax
    3633:	83 e8 01             	sub    $0x1,%eax
    3636:	89 85 68 fa ff ff    	mov    %eax,-0x598(%rbp)
    363c:	48 8d 85 50 fb ff ff 	lea    -0x4b0(%rbp),%rax
    3643:	48 89 c7             	mov    %rax,%rdi
    3646:	e8 0f 21 00 00       	callq  575a <_ZNK9__gnu_cxx17__normal_iteratorIP11bomb_structSt6vectorIS1_SaIS1_EEEdeEv>
    364b:	8b 00                	mov    (%rax),%eax
    364d:	89 85 bc fa ff ff    	mov    %eax,-0x544(%rbp)
    3653:	48 8d 85 50 fb ff ff 	lea    -0x4b0(%rbp),%rax
    365a:	48 89 c7             	mov    %rax,%rdi
    365d:	e8 f8 20 00 00       	callq  575a <_ZNK9__gnu_cxx17__normal_iteratorIP11bomb_structSt6vectorIS1_SaIS1_EEEdeEv>
    3662:	8b 40 04             	mov    0x4(%rax),%eax
    3665:	89 85 c0 fa ff ff    	mov    %eax,-0x540(%rbp)
    366b:	8b bd 3c fa ff ff    	mov    -0x5c4(%rbp),%edi
    3671:	8b 8d 38 fa ff ff    	mov    -0x5c8(%rbp),%ecx
    3677:	4c 8d 85 44 fa ff ff 	lea    -0x5bc(%rbp),%r8
    367e:	8b 95 c0 fa ff ff    	mov    -0x540(%rbp),%edx
    3684:	8b b5 bc fa ff ff    	mov    -0x544(%rbp),%esi
    368a:	48 8b 85 f8 fa ff ff 	mov    -0x508(%rbp),%rax
    3691:	4d 89 c1             	mov    %r8,%r9
    3694:	41 89 f8             	mov    %edi,%r8d
    3697:	48 89 c7             	mov    %rax,%rdi
    369a:	e8 52 f4 ff ff       	callq  2af1 <_Z11kill_bomberPP15object_map_dataiiiiPi>
    369f:	c7 85 6c fa ff ff 01 	movl   $0x1,-0x594(%rbp)
    36a6:	00 00 00 
    36a9:	48 8d 85 50 fb ff ff 	lea    -0x4b0(%rbp),%rax
    36b0:	48 89 c7             	mov    %rax,%rdi
    36b3:	e8 a2 20 00 00       	callq  575a <_ZNK9__gnu_cxx17__normal_iteratorIP11bomb_structSt6vectorIS1_SaIS1_EEEdeEv>
    36b8:	8b 50 10             	mov    0x10(%rax),%edx
    36bb:	8b 85 6c fa ff ff    	mov    -0x594(%rbp),%eax
    36c1:	39 c2                	cmp    %eax,%edx
    36c3:	0f 93 c0             	setae  %al
    36c6:	84 c0                	test   %al,%al
    36c8:	0f 84 54 01 00 00    	je     3822 <main+0xca0>
    36ce:	8b 95 bc fa ff ff    	mov    -0x544(%rbp),%edx
    36d4:	8b 85 6c fa ff ff    	mov    -0x594(%rbp),%eax
    36da:	01 d0                	add    %edx,%eax
    36dc:	39 85 68 fa ff ff    	cmp    %eax,-0x598(%rbp)
    36e2:	7c 3d                	jl     3721 <main+0xb9f>
    36e4:	8b bd 3c fa ff ff    	mov    -0x5c4(%rbp),%edi
    36ea:	8b 8d 38 fa ff ff    	mov    -0x5c8(%rbp),%ecx
    36f0:	8b 95 bc fa ff ff    	mov    -0x544(%rbp),%edx
    36f6:	8b 85 6c fa ff ff    	mov    -0x594(%rbp),%eax
    36fc:	8d 34 02             	lea    (%rdx,%rax,1),%esi
    36ff:	4c 8d 85 44 fa ff ff 	lea    -0x5bc(%rbp),%r8
    3706:	8b 95 c0 fa ff ff    	mov    -0x540(%rbp),%edx
    370c:	48 8b 85 f8 fa ff ff 	mov    -0x508(%rbp),%rax
    3713:	4d 89 c1             	mov    %r8,%r9
    3716:	41 89 f8             	mov    %edi,%r8d
    3719:	48 89 c7             	mov    %rax,%rdi
    371c:	e8 d0 f3 ff ff       	callq  2af1 <_Z11kill_bomberPP15object_map_dataiiiiPi>
    3721:	8b 85 bc fa ff ff    	mov    -0x544(%rbp),%eax
    3727:	2b 85 6c fa ff ff    	sub    -0x594(%rbp),%eax
    372d:	39 85 60 fa ff ff    	cmp    %eax,-0x5a0(%rbp)
    3733:	7f 3c                	jg     3771 <main+0xbef>
    3735:	8b bd 3c fa ff ff    	mov    -0x5c4(%rbp),%edi
    373b:	8b 8d 38 fa ff ff    	mov    -0x5c8(%rbp),%ecx
    3741:	8b 85 bc fa ff ff    	mov    -0x544(%rbp),%eax
    3747:	2b 85 6c fa ff ff    	sub    -0x594(%rbp),%eax
    374d:	89 c6                	mov    %eax,%esi
    374f:	4c 8d 85 44 fa ff ff 	lea    -0x5bc(%rbp),%r8
    3756:	8b 95 c0 fa ff ff    	mov    -0x540(%rbp),%edx
    375c:	48 8b 85 f8 fa ff ff 	mov    -0x508(%rbp),%rax
    3763:	4d 89 c1             	mov    %r8,%r9
    3766:	41 89 f8             	mov    %edi,%r8d
    3769:	48 89 c7             	mov    %rax,%rdi
    376c:	e8 80 f3 ff ff       	callq  2af1 <_Z11kill_bomberPP15object_map_dataiiiiPi>
    3771:	8b 95 c0 fa ff ff    	mov    -0x540(%rbp),%edx
    3777:	8b 85 6c fa ff ff    	mov    -0x594(%rbp),%eax
    377d:	01 d0                	add    %edx,%eax
    377f:	39 85 64 fa ff ff    	cmp    %eax,-0x59c(%rbp)
    3785:	7c 3f                	jl     37c6 <main+0xc44>
    3787:	44 8b 85 3c fa ff ff 	mov    -0x5c4(%rbp),%r8d
    378e:	8b 95 38 fa ff ff    	mov    -0x5c8(%rbp),%edx
    3794:	8b 8d c0 fa ff ff    	mov    -0x540(%rbp),%ecx
    379a:	8b 85 6c fa ff ff    	mov    -0x594(%rbp),%eax
    37a0:	8d 3c 01             	lea    (%rcx,%rax,1),%edi
    37a3:	48 8d 8d 44 fa ff ff 	lea    -0x5bc(%rbp),%rcx
    37aa:	8b b5 bc fa ff ff    	mov    -0x544(%rbp),%esi
    37b0:	48 8b 85 f8 fa ff ff 	mov    -0x508(%rbp),%rax
    37b7:	49 89 c9             	mov    %rcx,%r9
    37ba:	89 d1                	mov    %edx,%ecx
    37bc:	89 fa                	mov    %edi,%edx
    37be:	48 89 c7             	mov    %rax,%rdi
    37c1:	e8 2b f3 ff ff       	callq  2af1 <_Z11kill_bomberPP15object_map_dataiiiiPi>
    37c6:	8b 85 c0 fa ff ff    	mov    -0x540(%rbp),%eax
    37cc:	2b 85 6c fa ff ff    	sub    -0x594(%rbp),%eax
    37d2:	39 85 5c fa ff ff    	cmp    %eax,-0x5a4(%rbp)
    37d8:	7f 3c                	jg     3816 <main+0xc94>
    37da:	8b bd 3c fa ff ff    	mov    -0x5c4(%rbp),%edi
    37e0:	8b 8d 38 fa ff ff    	mov    -0x5c8(%rbp),%ecx
    37e6:	8b 85 c0 fa ff ff    	mov    -0x540(%rbp),%eax
    37ec:	2b 85 6c fa ff ff    	sub    -0x594(%rbp),%eax
    37f2:	89 c2                	mov    %eax,%edx
    37f4:	4c 8d 85 44 fa ff ff 	lea    -0x5bc(%rbp),%r8
    37fb:	8b b5 bc fa ff ff    	mov    -0x544(%rbp),%esi
    3801:	48 8b 85 f8 fa ff ff 	mov    -0x508(%rbp),%rax
    3808:	4d 89 c1             	mov    %r8,%r9
    380b:	41 89 f8             	mov    %edi,%r8d
    380e:	48 89 c7             	mov    %rax,%rdi
    3811:	e8 db f2 ff ff       	callq  2af1 <_Z11kill_bomberPP15object_map_dataiiiiPi>
    3816:	83 85 6c fa ff ff 01 	addl   $0x1,-0x594(%rbp)
    381d:	e9 87 fe ff ff       	jmpq   36a9 <main+0xb27>
    3822:	48 8d 85 50 fb ff ff 	lea    -0x4b0(%rbp),%rax
    3829:	48 89 c7             	mov    %rax,%rdi
    382c:	e8 29 1f 00 00       	callq  575a <_ZNK9__gnu_cxx17__normal_iteratorIP11bomb_structSt6vectorIS1_SaIS1_EEEdeEv>
    3831:	8b 40 04             	mov    0x4(%rax),%eax
    3834:	89 c3                	mov    %eax,%ebx
    3836:	48 8d 85 50 fb ff ff 	lea    -0x4b0(%rbp),%rax
    383d:	48 89 c7             	mov    %rax,%rdi
    3840:	e8 15 1f 00 00       	callq  575a <_ZNK9__gnu_cxx17__normal_iteratorIP11bomb_structSt6vectorIS1_SaIS1_EEEdeEv>
    3845:	8b 00                	mov    (%rax),%eax
    3847:	89 c6                	mov    %eax,%esi
    3849:	48 8b 85 00 fb ff ff 	mov    -0x500(%rbp),%rax
    3850:	41 b8 00 00 00 00    	mov    $0x0,%r8d
    3856:	b9 01 00 00 00       	mov    $0x1,%ecx
    385b:	89 da                	mov    %ebx,%edx
    385d:	48 89 c7             	mov    %rax,%rdi
    3860:	e8 50 f0 ff ff       	callq  28b5 <_Z15update_map_itemPP15object_map_dataii11object_typeb>
    3865:	48 8d 95 50 fb ff ff 	lea    -0x4b0(%rbp),%rdx
    386c:	48 8d 85 60 fb ff ff 	lea    -0x4a0(%rbp),%rax
    3873:	48 89 d6             	mov    %rdx,%rsi
    3876:	48 89 c7             	mov    %rax,%rdi
    3879:	e8 f2 1e 00 00       	callq  5770 <_ZN9__gnu_cxx17__normal_iteratorIPK11bomb_structSt6vectorIS1_SaIS1_EEEC1IPS1_EERKNS0_IT_NS_11__enable_ifIXsrSt10__are_sameISA_S9_E7__valueES6_E6__typeEEE>
    387e:	48 8b 95 60 fb ff ff 	mov    -0x4a0(%rbp),%rdx
    3885:	48 8d 85 e0 fb ff ff 	lea    -0x420(%rbp),%rax
    388c:	48 89 d6             	mov    %rdx,%rsi
    388f:	48 89 c7             	mov    %rax,%rdi
    3892:	e8 07 1f 00 00       	callq  579e <_ZNSt6vectorI11bomb_structSaIS0_EE5eraseEN9__gnu_cxx17__normal_iteratorIPKS0_S2_EE>
    3897:	48 8d 3d ed 57 00 00 	lea    0x57ed(%rip),%rdi        # 908b <_ZStL19piecewise_construct+0x83>
    389e:	e8 ad ed ff ff       	callq  2650 <puts@plt>
    38a3:	48 8d 85 50 fb ff ff 	lea    -0x4b0(%rbp),%rax
    38aa:	be 00 00 00 00       	mov    $0x0,%esi
    38af:	48 89 c7             	mov    %rax,%rdi
    38b2:	e8 3d 1e 00 00       	callq  56f4 <_ZN9__gnu_cxx17__normal_iteratorIP11bomb_structSt6vectorIS1_SaIS1_EEEppEi>
    38b7:	e9 65 fa ff ff       	jmpq   3321 <main+0x79f>
    38bc:	48 8d 85 c0 fb ff ff 	lea    -0x440(%rbp),%rax
    38c3:	48 89 c7             	mov    %rax,%rdi
    38c6:	e8 69 1f 00 00       	callq  5834 <_ZNSt6vectorI11bomber_dataSaIS0_EE5beginEv>
    38cb:	48 89 85 e0 fa ff ff 	mov    %rax,-0x520(%rbp)
    38d2:	48 8d 85 c0 fb ff ff 	lea    -0x440(%rbp),%rax
    38d9:	48 89 c7             	mov    %rax,%rdi
    38dc:	e8 9f 1f 00 00       	callq  5880 <_ZNSt6vectorI11bomber_dataSaIS0_EE3endEv>
    38e1:	48 89 85 40 fc ff ff 	mov    %rax,-0x3c0(%rbp)
    38e8:	48 8d 95 40 fc ff ff 	lea    -0x3c0(%rbp),%rdx
    38ef:	48 8d 85 e0 fa ff ff 	lea    -0x520(%rbp),%rax
    38f6:	48 89 d6             	mov    %rdx,%rsi
    38f9:	48 89 c7             	mov    %rax,%rdi
    38fc:	e8 cf 1f 00 00       	callq  58d0 <_ZN9__gnu_cxxneIP11bomber_dataSt6vectorIS1_SaIS1_EEEEbRKNS_17__normal_iteratorIT_T0_EESB_>
    3901:	84 c0                	test   %al,%al
    3903:	0f 84 5e 0f 00 00    	je     4867 <main+0x1ce5>
    3909:	48 8d 85 c0 fb ff ff 	lea    -0x440(%rbp),%rax
    3910:	48 89 c7             	mov    %rax,%rdi
    3913:	e8 a0 1c 00 00       	callq  55b8 <_ZNKSt6vectorI11bomber_dataSaIS0_EE4sizeEv>
    3918:	48 85 c0             	test   %rax,%rax
    391b:	0f 94 c0             	sete   %al
    391e:	84 c0                	test   %al,%al
    3920:	74 11                	je     3933 <main+0xdb1>
    3922:	48 8d 3d 6e 57 00 00 	lea    0x576e(%rip),%rdi        # 9097 <_ZStL19piecewise_construct+0x8f>
    3929:	e8 22 ed ff ff       	callq  2650 <puts@plt>
    392e:	e9 34 0f 00 00       	jmpq   4867 <main+0x1ce5>
    3933:	b8 00 00 00 00       	mov    $0x0,%eax
    3938:	b9 10 00 00 00       	mov    $0x10,%ecx
    393d:	48 8d 95 10 fe ff ff 	lea    -0x1f0(%rbp),%rdx
    3944:	48 89 d7             	mov    %rdx,%rdi
    3947:	fc                   	cld    
    3948:	f3 48 ab             	rep stos %rax,%es:(%rdi)
    394b:	89 f8                	mov    %edi,%eax
    394d:	89 ca                	mov    %ecx,%edx
    394f:	89 95 c4 fa ff ff    	mov    %edx,-0x53c(%rbp)
    3955:	89 85 c8 fa ff ff    	mov    %eax,-0x538(%rbp)
    395b:	48 8d 85 e0 fa ff ff 	lea    -0x520(%rbp),%rax
    3962:	48 89 c7             	mov    %rax,%rdi
    3965:	e8 0c 20 00 00       	callq  5976 <_ZNK9__gnu_cxx17__normal_iteratorIP11bomber_dataSt6vectorIS1_SaIS1_EEEdeEv>
    396a:	8b 40 0c             	mov    0xc(%rax),%eax
    396d:	99                   	cltd   
    396e:	c1 ea 1a             	shr    $0x1a,%edx
    3971:	01 d0                	add    %edx,%eax
    3973:	83 e0 3f             	and    $0x3f,%eax
    3976:	29 d0                	sub    %edx,%eax
    3978:	ba 01 00 00 00       	mov    $0x1,%edx
    397d:	89 c1                	mov    %eax,%ecx
    397f:	48 d3 e2             	shl    %cl,%rdx
    3982:	48 89 d0             	mov    %rdx,%rax
    3985:	48 89 c3             	mov    %rax,%rbx
    3988:	48 8d 85 e0 fa ff ff 	lea    -0x520(%rbp),%rax
    398f:	48 89 c7             	mov    %rax,%rdi
    3992:	e8 df 1f 00 00       	callq  5976 <_ZNK9__gnu_cxx17__normal_iteratorIP11bomber_dataSt6vectorIS1_SaIS1_EEEdeEv>
    3997:	8b 40 0c             	mov    0xc(%rax),%eax
    399a:	8d 50 3f             	lea    0x3f(%rax),%edx
    399d:	85 c0                	test   %eax,%eax
    399f:	0f 48 c2             	cmovs  %edx,%eax
    39a2:	c1 f8 06             	sar    $0x6,%eax
    39a5:	89 c1                	mov    %eax,%ecx
    39a7:	48 63 c1             	movslq %ecx,%rax
    39aa:	48 8b 84 c5 10 fe ff 	mov    -0x1f0(%rbp,%rax,8),%rax
    39b1:	ff 
    39b2:	48 09 c3             	or     %rax,%rbx
    39b5:	48 89 da             	mov    %rbx,%rdx
    39b8:	48 63 c1             	movslq %ecx,%rax
    39bb:	48 89 94 c5 10 fe ff 	mov    %rdx,-0x1f0(%rbp,%rax,8)
    39c2:	ff 
    39c3:	48 c7 85 60 fb ff ff 	movq   $0x0,-0x4a0(%rbp)
    39ca:	00 00 00 00 
    39ce:	48 c7 85 68 fb ff ff 	movq   $0x3e8,-0x498(%rbp)
    39d5:	e8 03 00 00 
    39d9:	48 8d 85 e0 fa ff ff 	lea    -0x520(%rbp),%rax
    39e0:	48 89 c7             	mov    %rax,%rdi
    39e3:	e8 8e 1f 00 00       	callq  5976 <_ZNK9__gnu_cxx17__normal_iteratorIP11bomber_dataSt6vectorIS1_SaIS1_EEEdeEv>
    39e8:	8b 40 0c             	mov    0xc(%rax),%eax
    39eb:	8d 78 01             	lea    0x1(%rax),%edi
    39ee:	48 8d 95 60 fb ff ff 	lea    -0x4a0(%rbp),%rdx
    39f5:	48 8d 85 10 fe ff ff 	lea    -0x1f0(%rbp),%rax
    39fc:	49 89 d0             	mov    %rdx,%r8
    39ff:	b9 00 00 00 00       	mov    $0x0,%ecx
    3a04:	ba 00 00 00 00       	mov    $0x0,%edx
    3a09:	48 89 c6             	mov    %rax,%rsi
    3a0c:	e8 1f eb ff ff       	callq  2530 <select@plt>
    3a11:	89 85 cc fa ff ff    	mov    %eax,-0x534(%rbp)
    3a17:	83 bd cc fa ff ff 00 	cmpl   $0x0,-0x534(%rbp)
    3a1e:	74 2e                	je     3a4e <main+0xecc>
    3a20:	48 8d 85 e0 fa ff ff 	lea    -0x520(%rbp),%rax
    3a27:	48 89 c7             	mov    %rax,%rdi
    3a2a:	e8 47 1f 00 00       	callq  5976 <_ZNK9__gnu_cxx17__normal_iteratorIP11bomber_dataSt6vectorIS1_SaIS1_EEEdeEv>
    3a2f:	8b 40 0c             	mov    0xc(%rax),%eax
    3a32:	48 8d 95 20 fc ff ff 	lea    -0x3e0(%rbp),%rdx
    3a39:	48 89 d6             	mov    %rdx,%rsi
    3a3c:	89 c7                	mov    %eax,%edi
    3a3e:	e8 f9 4f 00 00       	callq  8a3c <_Z9read_dataiP16incoming_message>
    3a43:	85 c0                	test   %eax,%eax
    3a45:	7e 07                	jle    3a4e <main+0xecc>
    3a47:	b8 01 00 00 00       	mov    $0x1,%eax
    3a4c:	eb 05                	jmp    3a53 <main+0xed1>
    3a4e:	b8 00 00 00 00       	mov    $0x0,%eax
    3a53:	84 c0                	test   %al,%al
    3a55:	0f 84 f3 0d 00 00    	je     484e <main+0x1ccc>
    3a5b:	48 8d 85 20 fc ff ff 	lea    -0x3e0(%rbp),%rax
    3a62:	48 89 85 58 fb ff ff 	mov    %rax,-0x4a8(%rbp)
    3a69:	48 8d 85 e0 fa ff ff 	lea    -0x520(%rbp),%rax
    3a70:	48 89 c7             	mov    %rax,%rdi
    3a73:	e8 fe 1e 00 00       	callq  5976 <_ZNK9__gnu_cxx17__normal_iteratorIP11bomber_dataSt6vectorIS1_SaIS1_EEEdeEv>
    3a78:	8b 40 18             	mov    0x18(%rax),%eax
    3a7b:	89 85 50 fb ff ff    	mov    %eax,-0x4b0(%rbp)
    3a81:	48 8d 85 50 fb ff ff 	lea    -0x4b0(%rbp),%rax
    3a88:	b9 00 00 00 00       	mov    $0x0,%ecx
    3a8d:	ba 00 00 00 00       	mov    $0x0,%edx
    3a92:	be 00 00 00 00       	mov    $0x0,%esi
    3a97:	48 89 c7             	mov    %rax,%rdi
    3a9a:	e8 00 4c 00 00       	callq  869f <_Z12print_outputP22incoming_message_printP22outgoing_message_printP13obstacle_dataP11object_data>
    3a9f:	c7 85 80 fa ff ff 00 	movl   $0x0,-0x580(%rbp)
    3aa6:	00 00 00 
    3aa9:	c7 85 d0 fa ff ff 32 	movl   $0x32,-0x530(%rbp)
    3ab0:	00 00 00 
    3ab3:	bf 2c 01 00 00       	mov    $0x12c,%edi
    3ab8:	e8 03 eb ff ff       	callq  25c0 <malloc@plt>
    3abd:	48 89 85 18 fb ff ff 	mov    %rax,-0x4e8(%rbp)
    3ac4:	48 8d 85 e0 fa ff ff 	lea    -0x520(%rbp),%rax
    3acb:	48 89 c7             	mov    %rax,%rdi
    3ace:	e8 a3 1e 00 00       	callq  5976 <_ZNK9__gnu_cxx17__normal_iteratorIP11bomber_dataSt6vectorIS1_SaIS1_EEEdeEv>
    3ad3:	8b 40 04             	mov    0x4(%rax),%eax
    3ad6:	89 c3                	mov    %eax,%ebx
    3ad8:	48 8d 85 e0 fa ff ff 	lea    -0x520(%rbp),%rax
    3adf:	48 89 c7             	mov    %rax,%rdi
    3ae2:	e8 8f 1e 00 00       	callq  5976 <_ZNK9__gnu_cxx17__normal_iteratorIP11bomber_dataSt6vectorIS1_SaIS1_EEEdeEv>
    3ae7:	8b 00                	mov    (%rax),%eax
    3ae9:	89 c1                	mov    %eax,%ecx
    3aeb:	48 8b 85 f8 fa ff ff 	mov    -0x508(%rbp),%rax
    3af2:	89 da                	mov    %ebx,%edx
    3af4:	89 ce                	mov    %ecx,%esi
    3af6:	48 89 c7             	mov    %rax,%rdi
    3af9:	e8 eb ec ff ff       	callq  27e9 <_Z12get_map_itemPP15object_map_dataii>
    3afe:	48 89 85 20 fb ff ff 	mov    %rax,-0x4e0(%rbp)
    3b05:	48 8b 85 20 fb ff ff 	mov    -0x4e0(%rbp),%rax
    3b0c:	0f b6 40 09          	movzbl 0x9(%rax),%eax
    3b10:	84 c0                	test   %al,%al
    3b12:	0f 84 e9 00 00 00    	je     3c01 <main+0x107f>
    3b18:	48 8d 3d 7f 55 00 00 	lea    0x557f(%rip),%rdi        # 909e <_ZStL19piecewise_construct+0x96>
    3b1f:	e8 2c eb ff ff       	callq  2650 <puts@plt>
    3b24:	48 8b 85 20 fb ff ff 	mov    -0x4e0(%rbp),%rax
    3b2b:	c6 40 08 00          	movb   $0x0,0x8(%rax)
    3b2f:	c7 85 44 fb ff ff 04 	movl   $0x4,-0x4bc(%rbp)
    3b36:	00 00 00 
    3b39:	48 8d 85 e0 fa ff ff 	lea    -0x520(%rbp),%rax
    3b40:	48 89 c7             	mov    %rax,%rdi
    3b43:	e8 2e 1e 00 00       	callq  5976 <_ZNK9__gnu_cxx17__normal_iteratorIP11bomber_dataSt6vectorIS1_SaIS1_EEEdeEv>
    3b48:	8b 40 18             	mov    0x18(%rax),%eax
    3b4b:	89 85 70 fb ff ff    	mov    %eax,-0x490(%rbp)
    3b51:	48 8d 85 44 fb ff ff 	lea    -0x4bc(%rbp),%rax
    3b58:	48 89 85 78 fb ff ff 	mov    %rax,-0x488(%rbp)
    3b5f:	48 8d 85 70 fb ff ff 	lea    -0x490(%rbp),%rax
    3b66:	b9 00 00 00 00       	mov    $0x0,%ecx
    3b6b:	ba 00 00 00 00       	mov    $0x0,%edx
    3b70:	48 89 c6             	mov    %rax,%rsi
    3b73:	bf 00 00 00 00       	mov    $0x0,%edi
    3b78:	e8 22 4b 00 00       	callq  869f <_Z12print_outputP22incoming_message_printP22outgoing_message_printP13obstacle_dataP11object_data>
    3b7d:	48 8d 85 e0 fa ff ff 	lea    -0x520(%rbp),%rax
    3b84:	48 89 c7             	mov    %rax,%rdi
    3b87:	e8 ea 1d 00 00       	callq  5976 <_ZNK9__gnu_cxx17__normal_iteratorIP11bomber_dataSt6vectorIS1_SaIS1_EEEdeEv>
    3b8c:	8b 40 0c             	mov    0xc(%rax),%eax
    3b8f:	48 8d 95 44 fb ff ff 	lea    -0x4bc(%rbp),%rdx
    3b96:	48 89 d6             	mov    %rdx,%rsi
    3b99:	89 c7                	mov    %eax,%edi
    3b9b:	e8 32 4e 00 00       	callq  89d2 <_Z12send_messageiP16outgoing_message>
    3ba0:	48 8d 85 e0 fa ff ff 	lea    -0x520(%rbp),%rax
    3ba7:	48 89 c7             	mov    %rax,%rdi
    3baa:	e8 c7 1d 00 00       	callq  5976 <_ZNK9__gnu_cxx17__normal_iteratorIP11bomber_dataSt6vectorIS1_SaIS1_EEEdeEv>
    3baf:	8b 40 18             	mov    0x18(%rax),%eax
    3bb2:	be 09 00 00 00       	mov    $0x9,%esi
    3bb7:	89 c7                	mov    %eax,%edi
    3bb9:	e8 42 ea ff ff       	callq  2600 <kill@plt>
    3bbe:	48 8d 95 e0 fa ff ff 	lea    -0x520(%rbp),%rdx
    3bc5:	48 8d 85 e8 fa ff ff 	lea    -0x518(%rbp),%rax
    3bcc:	48 89 d6             	mov    %rdx,%rsi
    3bcf:	48 89 c7             	mov    %rax,%rdi
    3bd2:	e8 b5 1d 00 00       	callq  598c <_ZN9__gnu_cxx17__normal_iteratorIPK11bomber_dataSt6vectorIS1_SaIS1_EEEC1IPS1_EERKNS0_IT_NS_11__enable_ifIXsrSt10__are_sameISA_S9_E7__valueES6_E6__typeEEE>
    3bd7:	48 8b 95 e8 fa ff ff 	mov    -0x518(%rbp),%rdx
    3bde:	48 8d 85 c0 fb ff ff 	lea    -0x440(%rbp),%rax
    3be5:	48 89 d6             	mov    %rdx,%rsi
    3be8:	48 89 c7             	mov    %rax,%rdi
    3beb:	e8 ca 1d 00 00       	callq  59ba <_ZNSt6vectorI11bomber_dataSaIS0_EE5eraseEN9__gnu_cxx17__normal_iteratorIPKS0_S2_EE>
    3bf0:	48 8d 3d b5 54 00 00 	lea    0x54b5(%rip),%rdi        # 90ac <_ZStL19piecewise_construct+0xa4>
    3bf7:	e8 54 ea ff ff       	callq  2650 <puts@plt>
    3bfc:	e9 4d 0c 00 00       	jmpq   484e <main+0x1ccc>
    3c01:	48 8b 85 20 fb ff ff 	mov    -0x4e0(%rbp),%rax
    3c08:	0f b6 40 08          	movzbl 0x8(%rax),%eax
    3c0c:	83 f0 01             	xor    $0x1,%eax
    3c0f:	84 c0                	test   %al,%al
    3c11:	0f 84 de 00 00 00    	je     3cf5 <main+0x1173>
    3c17:	48 8d 3d 97 54 00 00 	lea    0x5497(%rip),%rdi        # 90b5 <_ZStL19piecewise_construct+0xad>
    3c1e:	e8 2d ea ff ff       	callq  2650 <puts@plt>
    3c23:	c7 85 44 fb ff ff 03 	movl   $0x3,-0x4bc(%rbp)
    3c2a:	00 00 00 
    3c2d:	48 8d 85 e0 fa ff ff 	lea    -0x520(%rbp),%rax
    3c34:	48 89 c7             	mov    %rax,%rdi
    3c37:	e8 3a 1d 00 00       	callq  5976 <_ZNK9__gnu_cxx17__normal_iteratorIP11bomber_dataSt6vectorIS1_SaIS1_EEEdeEv>
    3c3c:	8b 40 18             	mov    0x18(%rax),%eax
    3c3f:	89 85 70 fb ff ff    	mov    %eax,-0x490(%rbp)
    3c45:	48 8d 85 44 fb ff ff 	lea    -0x4bc(%rbp),%rax
    3c4c:	48 89 85 78 fb ff ff 	mov    %rax,-0x488(%rbp)
    3c53:	48 8d 85 70 fb ff ff 	lea    -0x490(%rbp),%rax
    3c5a:	b9 00 00 00 00       	mov    $0x0,%ecx
    3c5f:	ba 00 00 00 00       	mov    $0x0,%edx
    3c64:	48 89 c6             	mov    %rax,%rsi
    3c67:	bf 00 00 00 00       	mov    $0x0,%edi
    3c6c:	e8 2e 4a 00 00       	callq  869f <_Z12print_outputP22incoming_message_printP22outgoing_message_printP13obstacle_dataP11object_data>
    3c71:	48 8d 85 e0 fa ff ff 	lea    -0x520(%rbp),%rax
    3c78:	48 89 c7             	mov    %rax,%rdi
    3c7b:	e8 f6 1c 00 00       	callq  5976 <_ZNK9__gnu_cxx17__normal_iteratorIP11bomber_dataSt6vectorIS1_SaIS1_EEEdeEv>
    3c80:	8b 40 0c             	mov    0xc(%rax),%eax
    3c83:	48 8d 95 44 fb ff ff 	lea    -0x4bc(%rbp),%rdx
    3c8a:	48 89 d6             	mov    %rdx,%rsi
    3c8d:	89 c7                	mov    %eax,%edi
    3c8f:	e8 3e 4d 00 00       	callq  89d2 <_Z12send_messageiP16outgoing_message>
    3c94:	48 8d 85 e0 fa ff ff 	lea    -0x520(%rbp),%rax
    3c9b:	48 89 c7             	mov    %rax,%rdi
    3c9e:	e8 d3 1c 00 00       	callq  5976 <_ZNK9__gnu_cxx17__normal_iteratorIP11bomber_dataSt6vectorIS1_SaIS1_EEEdeEv>
    3ca3:	8b 40 18             	mov    0x18(%rax),%eax
    3ca6:	be 09 00 00 00       	mov    $0x9,%esi
    3cab:	89 c7                	mov    %eax,%edi
    3cad:	e8 4e e9 ff ff       	callq  2600 <kill@plt>
    3cb2:	48 8d 95 e0 fa ff ff 	lea    -0x520(%rbp),%rdx
    3cb9:	48 8d 85 f0 fa ff ff 	lea    -0x510(%rbp),%rax
    3cc0:	48 89 d6             	mov    %rdx,%rsi
    3cc3:	48 89 c7             	mov    %rax,%rdi
    3cc6:	e8 c1 1c 00 00       	callq  598c <_ZN9__gnu_cxx17__normal_iteratorIPK11bomber_dataSt6vectorIS1_SaIS1_EEEC1IPS1_EERKNS0_IT_NS_11__enable_ifIXsrSt10__are_sameISA_S9_E7__valueES6_E6__typeEEE>
    3ccb:	48 8b 95 f0 fa ff ff 	mov    -0x510(%rbp),%rdx
    3cd2:	48 8d 85 c0 fb ff ff 	lea    -0x440(%rbp),%rax
    3cd9:	48 89 d6             	mov    %rdx,%rsi
    3cdc:	48 89 c7             	mov    %rax,%rdi
    3cdf:	e8 d6 1c 00 00       	callq  59ba <_ZNSt6vectorI11bomber_dataSaIS0_EE5eraseEN9__gnu_cxx17__normal_iteratorIPKS0_S2_EE>
    3ce4:	48 8d 3d c1 53 00 00 	lea    0x53c1(%rip),%rdi        # 90ac <_ZStL19piecewise_construct+0xa4>
    3ceb:	e8 60 e9 ff ff       	callq  2650 <puts@plt>
    3cf0:	e9 59 0b 00 00       	jmpq   484e <main+0x1ccc>
    3cf5:	8b 85 20 fc ff ff    	mov    -0x3e0(%rbp),%eax
    3cfb:	83 f8 03             	cmp    $0x3,%eax
    3cfe:	0f 84 8a 07 00 00    	je     448e <main+0x190c>
    3d04:	83 f8 03             	cmp    $0x3,%eax
    3d07:	0f 8f 27 0b 00 00    	jg     4834 <main+0x1cb2>
    3d0d:	83 f8 02             	cmp    $0x2,%eax
    3d10:	0f 84 72 04 00 00    	je     4188 <main+0x1606>
    3d16:	83 f8 02             	cmp    $0x2,%eax
    3d19:	0f 8f 15 0b 00 00    	jg     4834 <main+0x1cb2>
    3d1f:	85 c0                	test   %eax,%eax
    3d21:	74 0e                	je     3d31 <main+0x11af>
    3d23:	83 f8 01             	cmp    $0x1,%eax
    3d26:	0f 84 aa 00 00 00    	je     3dd6 <main+0x1254>
    3d2c:	e9 03 0b 00 00       	jmpq   4834 <main+0x1cb2>
    3d31:	c7 85 44 fb ff ff 00 	movl   $0x0,-0x4bc(%rbp)
    3d38:	00 00 00 
    3d3b:	48 8d 85 e0 fa ff ff 	lea    -0x520(%rbp),%rax
    3d42:	48 89 c7             	mov    %rax,%rdi
    3d45:	e8 2c 1c 00 00       	callq  5976 <_ZNK9__gnu_cxx17__normal_iteratorIP11bomber_dataSt6vectorIS1_SaIS1_EEEdeEv>
    3d4a:	8b 00                	mov    (%rax),%eax
    3d4c:	89 85 48 fb ff ff    	mov    %eax,-0x4b8(%rbp)
    3d52:	48 8d 85 e0 fa ff ff 	lea    -0x520(%rbp),%rax
    3d59:	48 89 c7             	mov    %rax,%rdi
    3d5c:	e8 15 1c 00 00       	callq  5976 <_ZNK9__gnu_cxx17__normal_iteratorIP11bomber_dataSt6vectorIS1_SaIS1_EEEdeEv>
    3d61:	8b 40 04             	mov    0x4(%rax),%eax
    3d64:	89 85 4c fb ff ff    	mov    %eax,-0x4b4(%rbp)
    3d6a:	48 8d 85 e0 fa ff ff 	lea    -0x520(%rbp),%rax
    3d71:	48 89 c7             	mov    %rax,%rdi
    3d74:	e8 fd 1b 00 00       	callq  5976 <_ZNK9__gnu_cxx17__normal_iteratorIP11bomber_dataSt6vectorIS1_SaIS1_EEEdeEv>
    3d79:	8b 40 18             	mov    0x18(%rax),%eax
    3d7c:	89 85 70 fb ff ff    	mov    %eax,-0x490(%rbp)
    3d82:	48 8d 85 44 fb ff ff 	lea    -0x4bc(%rbp),%rax
    3d89:	48 89 85 78 fb ff ff 	mov    %rax,-0x488(%rbp)
    3d90:	48 8d 85 70 fb ff ff 	lea    -0x490(%rbp),%rax
    3d97:	b9 00 00 00 00       	mov    $0x0,%ecx
    3d9c:	ba 00 00 00 00       	mov    $0x0,%edx
    3da1:	48 89 c6             	mov    %rax,%rsi
    3da4:	bf 00 00 00 00       	mov    $0x0,%edi
    3da9:	e8 f1 48 00 00       	callq  869f <_Z12print_outputP22incoming_message_printP22outgoing_message_printP13obstacle_dataP11object_data>
    3dae:	48 8d 85 e0 fa ff ff 	lea    -0x520(%rbp),%rax
    3db5:	48 89 c7             	mov    %rax,%rdi
    3db8:	e8 b9 1b 00 00       	callq  5976 <_ZNK9__gnu_cxx17__normal_iteratorIP11bomber_dataSt6vectorIS1_SaIS1_EEEdeEv>
    3dbd:	8b 40 0c             	mov    0xc(%rax),%eax
    3dc0:	48 8d 95 44 fb ff ff 	lea    -0x4bc(%rbp),%rdx
    3dc7:	48 89 d6             	mov    %rdx,%rsi
    3dca:	89 c7                	mov    %eax,%edi
    3dcc:	e8 01 4c 00 00       	callq  89d2 <_Z12send_messageiP16outgoing_message>
    3dd1:	e9 5f 0a 00 00       	jmpq   4835 <main+0x1cb3>
    3dd6:	48 8d 3d e7 52 00 00 	lea    0x52e7(%rip),%rdi        # 90c4 <_ZStL19piecewise_construct+0xbc>
    3ddd:	e8 6e e8 ff ff       	callq  2650 <puts@plt>
    3de2:	c7 85 44 fb ff ff 01 	movl   $0x1,-0x4bc(%rbp)
    3de9:	00 00 00 
    3dec:	c7 85 48 fb ff ff 00 	movl   $0x0,-0x4b8(%rbp)
    3df3:	00 00 00 
    3df6:	48 8d 85 e0 fa ff ff 	lea    -0x520(%rbp),%rax
    3dfd:	48 89 c7             	mov    %rax,%rdi
    3e00:	e8 71 1b 00 00       	callq  5976 <_ZNK9__gnu_cxx17__normal_iteratorIP11bomber_dataSt6vectorIS1_SaIS1_EEEdeEv>
    3e05:	8b 40 18             	mov    0x18(%rax),%eax
    3e08:	89 85 70 fb ff ff    	mov    %eax,-0x490(%rbp)
    3e0e:	48 8d 85 44 fb ff ff 	lea    -0x4bc(%rbp),%rax
    3e15:	48 89 85 78 fb ff ff 	mov    %rax,-0x488(%rbp)
    3e1c:	48 8d 85 e0 fa ff ff 	lea    -0x520(%rbp),%rax
    3e23:	48 89 c7             	mov    %rax,%rdi
    3e26:	e8 4b 1b 00 00       	callq  5976 <_ZNK9__gnu_cxx17__normal_iteratorIP11bomber_dataSt6vectorIS1_SaIS1_EEEdeEv>
    3e2b:	8b 40 04             	mov    0x4(%rax),%eax
    3e2e:	83 e8 03             	sub    $0x3,%eax
    3e31:	89 85 70 fa ff ff    	mov    %eax,-0x590(%rbp)
    3e37:	48 8d 85 e0 fa ff ff 	lea    -0x520(%rbp),%rax
    3e3e:	48 89 c7             	mov    %rax,%rdi
    3e41:	e8 30 1b 00 00       	callq  5976 <_ZNK9__gnu_cxx17__normal_iteratorIP11bomber_dataSt6vectorIS1_SaIS1_EEEdeEv>
    3e46:	8b 00                	mov    (%rax),%eax
    3e48:	83 e8 03             	sub    $0x3,%eax
    3e4b:	89 85 74 fa ff ff    	mov    %eax,-0x58c(%rbp)
    3e51:	48 8d 85 e0 fa ff ff 	lea    -0x520(%rbp),%rax
    3e58:	48 89 c7             	mov    %rax,%rdi
    3e5b:	e8 16 1b 00 00       	callq  5976 <_ZNK9__gnu_cxx17__normal_iteratorIP11bomber_dataSt6vectorIS1_SaIS1_EEEdeEv>
    3e60:	8b 40 04             	mov    0x4(%rax),%eax
    3e63:	83 c0 03             	add    $0x3,%eax
    3e66:	89 85 78 fa ff ff    	mov    %eax,-0x588(%rbp)
    3e6c:	48 8d 85 e0 fa ff ff 	lea    -0x520(%rbp),%rax
    3e73:	48 89 c7             	mov    %rax,%rdi
    3e76:	e8 fb 1a 00 00       	callq  5976 <_ZNK9__gnu_cxx17__normal_iteratorIP11bomber_dataSt6vectorIS1_SaIS1_EEEdeEv>
    3e7b:	8b 00                	mov    (%rax),%eax
    3e7d:	83 c0 03             	add    $0x3,%eax
    3e80:	89 85 7c fa ff ff    	mov    %eax,-0x584(%rbp)
    3e86:	83 bd 70 fa ff ff 00 	cmpl   $0x0,-0x590(%rbp)
    3e8d:	79 0a                	jns    3e99 <main+0x1317>
    3e8f:	c7 85 70 fa ff ff 00 	movl   $0x0,-0x590(%rbp)
    3e96:	00 00 00 
    3e99:	83 bd 74 fa ff ff 00 	cmpl   $0x0,-0x58c(%rbp)
    3ea0:	79 0a                	jns    3eac <main+0x132a>
    3ea2:	c7 85 74 fa ff ff 00 	movl   $0x0,-0x58c(%rbp)
    3ea9:	00 00 00 
    3eac:	8b 85 3c fa ff ff    	mov    -0x5c4(%rbp),%eax
    3eb2:	39 85 78 fa ff ff    	cmp    %eax,-0x588(%rbp)
    3eb8:	7c 0f                	jl     3ec9 <main+0x1347>
    3eba:	8b 85 3c fa ff ff    	mov    -0x5c4(%rbp),%eax
    3ec0:	83 e8 01             	sub    $0x1,%eax
    3ec3:	89 85 78 fa ff ff    	mov    %eax,-0x588(%rbp)
    3ec9:	8b 85 38 fa ff ff    	mov    -0x5c8(%rbp),%eax
    3ecf:	39 85 7c fa ff ff    	cmp    %eax,-0x584(%rbp)
    3ed5:	7c 0f                	jl     3ee6 <main+0x1364>
    3ed7:	8b 85 38 fa ff ff    	mov    -0x5c8(%rbp),%eax
    3edd:	83 e8 01             	sub    $0x1,%eax
    3ee0:	89 85 7c fa ff ff    	mov    %eax,-0x584(%rbp)
    3ee6:	8b 85 74 fa ff ff    	mov    -0x58c(%rbp),%eax
    3eec:	89 85 84 fa ff ff    	mov    %eax,-0x57c(%rbp)
    3ef2:	8b 85 84 fa ff ff    	mov    -0x57c(%rbp),%eax
    3ef8:	3b 85 7c fa ff ff    	cmp    -0x584(%rbp),%eax
    3efe:	0f 8f 18 01 00 00    	jg     401c <main+0x149a>
    3f04:	8b 85 70 fa ff ff    	mov    -0x590(%rbp),%eax
    3f0a:	89 85 88 fa ff ff    	mov    %eax,-0x578(%rbp)
    3f10:	8b 85 88 fa ff ff    	mov    -0x578(%rbp),%eax
    3f16:	3b 85 78 fa ff ff    	cmp    -0x588(%rbp),%eax
    3f1c:	0f 8f ee 00 00 00    	jg     4010 <main+0x148e>
    3f22:	8b 95 88 fa ff ff    	mov    -0x578(%rbp),%edx
    3f28:	8b 8d 84 fa ff ff    	mov    -0x57c(%rbp),%ecx
    3f2e:	48 8b 85 f8 fa ff ff 	mov    -0x508(%rbp),%rax
    3f35:	89 ce                	mov    %ecx,%esi
    3f37:	48 89 c7             	mov    %rax,%rdi
    3f3a:	e8 aa e8 ff ff       	callq  27e9 <_Z12get_map_itemPP15object_map_dataii>
    3f3f:	48 89 85 30 fb ff ff 	mov    %rax,-0x4d0(%rbp)
    3f46:	48 8b 85 30 fb ff ff 	mov    -0x4d0(%rbp),%rax
    3f4d:	0f b6 00             	movzbl (%rax),%eax
    3f50:	84 c0                	test   %al,%al
    3f52:	0f 84 ac 00 00 00    	je     4004 <main+0x1482>
    3f58:	48 8d 85 e0 fa ff ff 	lea    -0x520(%rbp),%rax
    3f5f:	48 89 c7             	mov    %rax,%rdi
    3f62:	e8 0f 1a 00 00       	callq  5976 <_ZNK9__gnu_cxx17__normal_iteratorIP11bomber_dataSt6vectorIS1_SaIS1_EEEdeEv>
    3f67:	8b 10                	mov    (%rax),%edx
    3f69:	8b 85 84 fa ff ff    	mov    -0x57c(%rbp),%eax
    3f6f:	39 c2                	cmp    %eax,%edx
    3f71:	75 1c                	jne    3f8f <main+0x140d>
    3f73:	48 8d 85 e0 fa ff ff 	lea    -0x520(%rbp),%rax
    3f7a:	48 89 c7             	mov    %rax,%rdi
    3f7d:	e8 f4 19 00 00       	callq  5976 <_ZNK9__gnu_cxx17__normal_iteratorIP11bomber_dataSt6vectorIS1_SaIS1_EEEdeEv>
    3f82:	8b 50 04             	mov    0x4(%rax),%edx
    3f85:	8b 85 88 fa ff ff    	mov    -0x578(%rbp),%eax
    3f8b:	39 c2                	cmp    %eax,%edx
    3f8d:	74 07                	je     3f96 <main+0x1414>
    3f8f:	b8 01 00 00 00       	mov    $0x1,%eax
    3f94:	eb 05                	jmp    3f9b <main+0x1419>
    3f96:	b8 00 00 00 00       	mov    $0x0,%eax
    3f9b:	84 c0                	test   %al,%al
    3f9d:	74 65                	je     4004 <main+0x1482>
    3f9f:	48 8b 85 30 fb ff ff 	mov    -0x4d0(%rbp),%rax
    3fa6:	8b 40 04             	mov    0x4(%rax),%eax
    3fa9:	89 85 48 fc ff ff    	mov    %eax,-0x3b8(%rbp)
    3faf:	8b 85 84 fa ff ff    	mov    -0x57c(%rbp),%eax
    3fb5:	89 85 40 fc ff ff    	mov    %eax,-0x3c0(%rbp)
    3fbb:	8b 85 88 fa ff ff    	mov    -0x578(%rbp),%eax
    3fc1:	89 85 44 fc ff ff    	mov    %eax,-0x3bc(%rbp)
    3fc7:	8b 85 80 fa ff ff    	mov    -0x580(%rbp),%eax
    3fcd:	48 63 d0             	movslq %eax,%rdx
    3fd0:	48 89 d0             	mov    %rdx,%rax
    3fd3:	48 01 c0             	add    %rax,%rax
    3fd6:	48 01 d0             	add    %rdx,%rax
    3fd9:	48 c1 e0 02          	shl    $0x2,%rax
    3fdd:	48 89 c2             	mov    %rax,%rdx
    3fe0:	48 8b 85 18 fb ff ff 	mov    -0x4e8(%rbp),%rax
    3fe7:	48 01 d0             	add    %rdx,%rax
    3fea:	48 8b 95 40 fc ff ff 	mov    -0x3c0(%rbp),%rdx
    3ff1:	48 89 10             	mov    %rdx,(%rax)
    3ff4:	8b 95 48 fc ff ff    	mov    -0x3b8(%rbp),%edx
    3ffa:	89 50 08             	mov    %edx,0x8(%rax)
    3ffd:	83 85 80 fa ff ff 01 	addl   $0x1,-0x580(%rbp)
    4004:	83 85 88 fa ff ff 01 	addl   $0x1,-0x578(%rbp)
    400b:	e9 00 ff ff ff       	jmpq   3f10 <main+0x138e>
    4010:	83 85 84 fa ff ff 01 	addl   $0x1,-0x57c(%rbp)
    4017:	e9 d6 fe ff ff       	jmpq   3ef2 <main+0x1370>
    401c:	8b 85 74 fa ff ff    	mov    -0x58c(%rbp),%eax
    4022:	89 85 8c fa ff ff    	mov    %eax,-0x574(%rbp)
    4028:	8b 85 8c fa ff ff    	mov    -0x574(%rbp),%eax
    402e:	3b 85 7c fa ff ff    	cmp    -0x584(%rbp),%eax
    4034:	0f 8f cd 00 00 00    	jg     4107 <main+0x1585>
    403a:	8b 85 70 fa ff ff    	mov    -0x590(%rbp),%eax
    4040:	89 85 90 fa ff ff    	mov    %eax,-0x570(%rbp)
    4046:	8b 85 90 fa ff ff    	mov    -0x570(%rbp),%eax
    404c:	3b 85 78 fa ff ff    	cmp    -0x588(%rbp),%eax
    4052:	0f 8f a3 00 00 00    	jg     40fb <main+0x1579>
    4058:	8b 95 90 fa ff ff    	mov    -0x570(%rbp),%edx
    405e:	8b 8d 8c fa ff ff    	mov    -0x574(%rbp),%ecx
    4064:	48 8b 85 00 fb ff ff 	mov    -0x500(%rbp),%rax
    406b:	89 ce                	mov    %ecx,%esi
    406d:	48 89 c7             	mov    %rax,%rdi
    4070:	e8 74 e7 ff ff       	callq  27e9 <_Z12get_map_itemPP15object_map_dataii>
    4075:	48 89 85 38 fb ff ff 	mov    %rax,-0x4c8(%rbp)
    407c:	48 8b 85 38 fb ff ff 	mov    -0x4c8(%rbp),%rax
    4083:	0f b6 00             	movzbl (%rax),%eax
    4086:	84 c0                	test   %al,%al
    4088:	74 65                	je     40ef <main+0x156d>
    408a:	48 8b 85 38 fb ff ff 	mov    -0x4c8(%rbp),%rax
    4091:	8b 40 04             	mov    0x4(%rax),%eax
    4094:	89 85 48 fc ff ff    	mov    %eax,-0x3b8(%rbp)
    409a:	8b 85 8c fa ff ff    	mov    -0x574(%rbp),%eax
    40a0:	89 85 40 fc ff ff    	mov    %eax,-0x3c0(%rbp)
    40a6:	8b 85 90 fa ff ff    	mov    -0x570(%rbp),%eax
    40ac:	89 85 44 fc ff ff    	mov    %eax,-0x3bc(%rbp)
    40b2:	8b 85 80 fa ff ff    	mov    -0x580(%rbp),%eax
    40b8:	48 63 d0             	movslq %eax,%rdx
    40bb:	48 89 d0             	mov    %rdx,%rax
    40be:	48 01 c0             	add    %rax,%rax
    40c1:	48 01 d0             	add    %rdx,%rax
    40c4:	48 c1 e0 02          	shl    $0x2,%rax
    40c8:	48 89 c2             	mov    %rax,%rdx
    40cb:	48 8b 85 18 fb ff ff 	mov    -0x4e8(%rbp),%rax
    40d2:	48 01 d0             	add    %rdx,%rax
    40d5:	48 8b 95 40 fc ff ff 	mov    -0x3c0(%rbp),%rdx
    40dc:	48 89 10             	mov    %rdx,(%rax)
    40df:	8b 95 48 fc ff ff    	mov    -0x3b8(%rbp),%edx
    40e5:	89 50 08             	mov    %edx,0x8(%rax)
    40e8:	83 85 80 fa ff ff 01 	addl   $0x1,-0x580(%rbp)
    40ef:	83 85 90 fa ff ff 01 	addl   $0x1,-0x570(%rbp)
    40f6:	e9 4b ff ff ff       	jmpq   4046 <main+0x14c4>
    40fb:	83 85 8c fa ff ff 01 	addl   $0x1,-0x574(%rbp)
    4102:	e9 21 ff ff ff       	jmpq   4028 <main+0x14a6>
    4107:	8b 85 80 fa ff ff    	mov    -0x580(%rbp),%eax
    410d:	89 85 48 fb ff ff    	mov    %eax,-0x4b8(%rbp)
    4113:	48 8b 95 18 fb ff ff 	mov    -0x4e8(%rbp),%rdx
    411a:	48 8d 85 70 fb ff ff 	lea    -0x490(%rbp),%rax
    4121:	48 89 d1             	mov    %rdx,%rcx
    4124:	ba 00 00 00 00       	mov    $0x0,%edx
    4129:	48 89 c6             	mov    %rax,%rsi
    412c:	bf 00 00 00 00       	mov    $0x0,%edi
    4131:	e8 69 45 00 00       	callq  869f <_Z12print_outputP22incoming_message_printP22outgoing_message_printP13obstacle_dataP11object_data>
    4136:	48 8d 85 e0 fa ff ff 	lea    -0x520(%rbp),%rax
    413d:	48 89 c7             	mov    %rax,%rdi
    4140:	e8 31 18 00 00       	callq  5976 <_ZNK9__gnu_cxx17__normal_iteratorIP11bomber_dataSt6vectorIS1_SaIS1_EEEdeEv>
    4145:	8b 40 0c             	mov    0xc(%rax),%eax
    4148:	48 8d 95 44 fb ff ff 	lea    -0x4bc(%rbp),%rdx
    414f:	48 89 d6             	mov    %rdx,%rsi
    4152:	89 c7                	mov    %eax,%edi
    4154:	e8 79 48 00 00       	callq  89d2 <_Z12send_messageiP16outgoing_message>
    4159:	8b 85 48 fb ff ff    	mov    -0x4b8(%rbp),%eax
    415f:	89 c3                	mov    %eax,%ebx
    4161:	48 8d 85 e0 fa ff ff 	lea    -0x520(%rbp),%rax
    4168:	48 89 c7             	mov    %rax,%rdi
    416b:	e8 06 18 00 00       	callq  5976 <_ZNK9__gnu_cxx17__normal_iteratorIP11bomber_dataSt6vectorIS1_SaIS1_EEEdeEv>
    4170:	8b 40 0c             	mov    0xc(%rax),%eax
    4173:	48 8b 95 18 fb ff ff 	mov    -0x4e8(%rbp),%rdx
    417a:	89 de                	mov    %ebx,%esi
    417c:	89 c7                	mov    %eax,%edi
    417e:	e8 7a 48 00 00       	callq  89fd <_Z16send_object_dataiiP11object_data>
    4183:	e9 ad 06 00 00       	jmpq   4835 <main+0x1cb3>
    4188:	48 8d 3d 41 4f 00 00 	lea    0x4f41(%rip),%rdi        # 90d0 <_ZStL19piecewise_construct+0xc8>
    418f:	e8 bc e4 ff ff       	callq  2650 <puts@plt>
    4194:	8b 85 28 fc ff ff    	mov    -0x3d8(%rbp),%eax
    419a:	89 85 d8 fa ff ff    	mov    %eax,-0x528(%rbp)
    41a0:	8b 85 2c fc ff ff    	mov    -0x3d4(%rbp),%eax
    41a6:	89 85 dc fa ff ff    	mov    %eax,-0x524(%rbp)
    41ac:	c7 85 44 fb ff ff 00 	movl   $0x0,-0x4bc(%rbp)
    41b3:	00 00 00 
    41b6:	48 8d 85 e0 fa ff ff 	lea    -0x520(%rbp),%rax
    41bd:	48 89 c7             	mov    %rax,%rdi
    41c0:	e8 b1 17 00 00       	callq  5976 <_ZNK9__gnu_cxx17__normal_iteratorIP11bomber_dataSt6vectorIS1_SaIS1_EEEdeEv>
    41c5:	8b 00                	mov    (%rax),%eax
    41c7:	89 85 48 fb ff ff    	mov    %eax,-0x4b8(%rbp)
    41cd:	48 8d 85 e0 fa ff ff 	lea    -0x520(%rbp),%rax
    41d4:	48 89 c7             	mov    %rax,%rdi
    41d7:	e8 9a 17 00 00       	callq  5976 <_ZNK9__gnu_cxx17__normal_iteratorIP11bomber_dataSt6vectorIS1_SaIS1_EEEdeEv>
    41dc:	8b 40 04             	mov    0x4(%rax),%eax
    41df:	89 85 4c fb ff ff    	mov    %eax,-0x4b4(%rbp)
    41e5:	48 8d 85 e0 fa ff ff 	lea    -0x520(%rbp),%rax
    41ec:	48 89 c7             	mov    %rax,%rdi
    41ef:	e8 82 17 00 00       	callq  5976 <_ZNK9__gnu_cxx17__normal_iteratorIP11bomber_dataSt6vectorIS1_SaIS1_EEEdeEv>
    41f4:	8b 10                	mov    (%rax),%edx
    41f6:	8b 85 d8 fa ff ff    	mov    -0x528(%rbp),%eax
    41fc:	39 c2                	cmp    %eax,%edx
    41fe:	74 23                	je     4223 <main+0x16a1>
    4200:	48 8d 85 e0 fa ff ff 	lea    -0x520(%rbp),%rax
    4207:	48 89 c7             	mov    %rax,%rdi
    420a:	e8 67 17 00 00       	callq  5976 <_ZNK9__gnu_cxx17__normal_iteratorIP11bomber_dataSt6vectorIS1_SaIS1_EEEdeEv>
    420f:	8b 50 04             	mov    0x4(%rax),%edx
    4212:	8b 85 dc fa ff ff    	mov    -0x524(%rbp),%eax
    4218:	39 c2                	cmp    %eax,%edx
    421a:	74 07                	je     4223 <main+0x16a1>
    421c:	b8 01 00 00 00       	mov    $0x1,%eax
    4221:	eb 05                	jmp    4228 <main+0x16a6>
    4223:	b8 00 00 00 00       	mov    $0x0,%eax
    4228:	84 c0                	test   %al,%al
    422a:	74 34                	je     4260 <main+0x16de>
    422c:	48 8d 85 e0 fa ff ff 	lea    -0x520(%rbp),%rax
    4233:	48 89 c7             	mov    %rax,%rdi
    4236:	e8 3b 17 00 00       	callq  5976 <_ZNK9__gnu_cxx17__normal_iteratorIP11bomber_dataSt6vectorIS1_SaIS1_EEEdeEv>
    423b:	8b 00                	mov    (%rax),%eax
    423d:	89 85 48 fb ff ff    	mov    %eax,-0x4b8(%rbp)
    4243:	48 8d 85 e0 fa ff ff 	lea    -0x520(%rbp),%rax
    424a:	48 89 c7             	mov    %rax,%rdi
    424d:	e8 24 17 00 00       	callq  5976 <_ZNK9__gnu_cxx17__normal_iteratorIP11bomber_dataSt6vectorIS1_SaIS1_EEEdeEv>
    4252:	8b 40 04             	mov    0x4(%rax),%eax
    4255:	89 85 4c fb ff ff    	mov    %eax,-0x4b4(%rbp)
    425b:	e9 3e 01 00 00       	jmpq   439e <main+0x181c>
    4260:	48 8d 85 e0 fa ff ff 	lea    -0x520(%rbp),%rax
    4267:	48 89 c7             	mov    %rax,%rdi
    426a:	e8 07 17 00 00       	callq  5976 <_ZNK9__gnu_cxx17__normal_iteratorIP11bomber_dataSt6vectorIS1_SaIS1_EEEdeEv>
    426f:	8b 10                	mov    (%rax),%edx
    4271:	8b 85 d8 fa ff ff    	mov    -0x528(%rbp),%eax
    4277:	39 c2                	cmp    %eax,%edx
    4279:	0f 94 c0             	sete   %al
    427c:	84 c0                	test   %al,%al
    427e:	0f 84 86 00 00 00    	je     430a <main+0x1788>
    4284:	8b 9d dc fa ff ff    	mov    -0x524(%rbp),%ebx
    428a:	48 8d 85 e0 fa ff ff 	lea    -0x520(%rbp),%rax
    4291:	48 89 c7             	mov    %rax,%rdi
    4294:	e8 dd 16 00 00       	callq  5976 <_ZNK9__gnu_cxx17__normal_iteratorIP11bomber_dataSt6vectorIS1_SaIS1_EEEdeEv>
    4299:	8b 40 04             	mov    0x4(%rax),%eax
    429c:	29 c3                	sub    %eax,%ebx
    429e:	89 d8                	mov    %ebx,%eax
    42a0:	83 f8 01             	cmp    $0x1,%eax
    42a3:	74 21                	je     42c6 <main+0x1744>
    42a5:	8b 9d dc fa ff ff    	mov    -0x524(%rbp),%ebx
    42ab:	48 8d 85 e0 fa ff ff 	lea    -0x520(%rbp),%rax
    42b2:	48 89 c7             	mov    %rax,%rdi
    42b5:	e8 bc 16 00 00       	callq  5976 <_ZNK9__gnu_cxx17__normal_iteratorIP11bomber_dataSt6vectorIS1_SaIS1_EEEdeEv>
    42ba:	8b 40 04             	mov    0x4(%rax),%eax
    42bd:	29 c3                	sub    %eax,%ebx
    42bf:	89 d8                	mov    %ebx,%eax
    42c1:	83 f8 ff             	cmp    $0xffffffff,%eax
    42c4:	75 07                	jne    42cd <main+0x174b>
    42c6:	b8 01 00 00 00       	mov    $0x1,%eax
    42cb:	eb 05                	jmp    42d2 <main+0x1750>
    42cd:	b8 00 00 00 00       	mov    $0x0,%eax
    42d2:	84 c0                	test   %al,%al
    42d4:	0f 84 c4 00 00 00    	je     439e <main+0x181c>
    42da:	83 bd dc fa ff ff 00 	cmpl   $0x0,-0x524(%rbp)
    42e1:	0f 88 b7 00 00 00    	js     439e <main+0x181c>
    42e7:	8b 85 3c fa ff ff    	mov    -0x5c4(%rbp),%eax
    42ed:	39 85 dc fa ff ff    	cmp    %eax,-0x524(%rbp)
    42f3:	0f 8d a5 00 00 00    	jge    439e <main+0x181c>
    42f9:	8b 85 dc fa ff ff    	mov    -0x524(%rbp),%eax
    42ff:	89 85 4c fb ff ff    	mov    %eax,-0x4b4(%rbp)
    4305:	e9 94 00 00 00       	jmpq   439e <main+0x181c>
    430a:	48 8d 85 e0 fa ff ff 	lea    -0x520(%rbp),%rax
    4311:	48 89 c7             	mov    %rax,%rdi
    4314:	e8 5d 16 00 00       	callq  5976 <_ZNK9__gnu_cxx17__normal_iteratorIP11bomber_dataSt6vectorIS1_SaIS1_EEEdeEv>
    4319:	8b 50 04             	mov    0x4(%rax),%edx
    431c:	8b 85 dc fa ff ff    	mov    -0x524(%rbp),%eax
    4322:	39 c2                	cmp    %eax,%edx
    4324:	0f 94 c0             	sete   %al
    4327:	84 c0                	test   %al,%al
    4329:	74 73                	je     439e <main+0x181c>
    432b:	8b 9d d8 fa ff ff    	mov    -0x528(%rbp),%ebx
    4331:	48 8d 85 e0 fa ff ff 	lea    -0x520(%rbp),%rax
    4338:	48 89 c7             	mov    %rax,%rdi
    433b:	e8 36 16 00 00       	callq  5976 <_ZNK9__gnu_cxx17__normal_iteratorIP11bomber_dataSt6vectorIS1_SaIS1_EEEdeEv>
    4340:	8b 00                	mov    (%rax),%eax
    4342:	29 c3                	sub    %eax,%ebx
    4344:	89 d8                	mov    %ebx,%eax
    4346:	83 f8 01             	cmp    $0x1,%eax
    4349:	74 20                	je     436b <main+0x17e9>
    434b:	8b 9d d8 fa ff ff    	mov    -0x528(%rbp),%ebx
    4351:	48 8d 85 e0 fa ff ff 	lea    -0x520(%rbp),%rax
    4358:	48 89 c7             	mov    %rax,%rdi
    435b:	e8 16 16 00 00       	callq  5976 <_ZNK9__gnu_cxx17__normal_iteratorIP11bomber_dataSt6vectorIS1_SaIS1_EEEdeEv>
    4360:	8b 00                	mov    (%rax),%eax
    4362:	29 c3                	sub    %eax,%ebx
    4364:	89 d8                	mov    %ebx,%eax
    4366:	83 f8 ff             	cmp    $0xffffffff,%eax
    4369:	75 07                	jne    4372 <main+0x17f0>
    436b:	b8 01 00 00 00       	mov    $0x1,%eax
    4370:	eb 05                	jmp    4377 <main+0x17f5>
    4372:	b8 00 00 00 00       	mov    $0x0,%eax
    4377:	84 c0                	test   %al,%al
    4379:	74 23                	je     439e <main+0x181c>
    437b:	83 bd d8 fa ff ff 00 	cmpl   $0x0,-0x528(%rbp)
    4382:	78 1a                	js     439e <main+0x181c>
    4384:	8b 85 38 fa ff ff    	mov    -0x5c8(%rbp),%eax
    438a:	39 85 d8 fa ff ff    	cmp    %eax,-0x528(%rbp)
    4390:	7d 0c                	jge    439e <main+0x181c>
    4392:	8b 85 d8 fa ff ff    	mov    -0x528(%rbp),%eax
    4398:	89 85 48 fb ff ff    	mov    %eax,-0x4b8(%rbp)
    439e:	8b 85 4c fb ff ff    	mov    -0x4b4(%rbp),%eax
    43a4:	41 89 c5             	mov    %eax,%r13d
    43a7:	8b 85 48 fb ff ff    	mov    -0x4b8(%rbp),%eax
    43ad:	41 89 c4             	mov    %eax,%r12d
    43b0:	48 8d 85 e0 fa ff ff 	lea    -0x520(%rbp),%rax
    43b7:	48 89 c7             	mov    %rax,%rdi
    43ba:	e8 b7 15 00 00       	callq  5976 <_ZNK9__gnu_cxx17__normal_iteratorIP11bomber_dataSt6vectorIS1_SaIS1_EEEdeEv>
    43bf:	8b 40 04             	mov    0x4(%rax),%eax
    43c2:	89 c3                	mov    %eax,%ebx
    43c4:	48 8d 85 e0 fa ff ff 	lea    -0x520(%rbp),%rax
    43cb:	48 89 c7             	mov    %rax,%rdi
    43ce:	e8 a3 15 00 00       	callq  5976 <_ZNK9__gnu_cxx17__normal_iteratorIP11bomber_dataSt6vectorIS1_SaIS1_EEEdeEv>
    43d3:	8b 00                	mov    (%rax),%eax
    43d5:	89 c6                	mov    %eax,%esi
    43d7:	48 8b 85 f8 fa ff ff 	mov    -0x508(%rbp),%rax
    43de:	45 89 e9             	mov    %r13d,%r9d
    43e1:	45 89 e0             	mov    %r12d,%r8d
    43e4:	b9 00 00 00 00       	mov    $0x0,%ecx
    43e9:	89 da                	mov    %ebx,%edx
    43eb:	48 89 c7             	mov    %rax,%rdi
    43ee:	e8 4e e5 ff ff       	callq  2941 <_Z13move_map_itemPP15object_map_dataii11object_typeii>
    43f3:	48 8d 85 e0 fa ff ff 	lea    -0x520(%rbp),%rax
    43fa:	48 89 c7             	mov    %rax,%rdi
    43fd:	e8 74 15 00 00       	callq  5976 <_ZNK9__gnu_cxx17__normal_iteratorIP11bomber_dataSt6vectorIS1_SaIS1_EEEdeEv>
    4402:	8b 95 48 fb ff ff    	mov    -0x4b8(%rbp),%edx
    4408:	89 10                	mov    %edx,(%rax)
    440a:	48 8d 85 e0 fa ff ff 	lea    -0x520(%rbp),%rax
    4411:	48 89 c7             	mov    %rax,%rdi
    4414:	e8 5d 15 00 00       	callq  5976 <_ZNK9__gnu_cxx17__normal_iteratorIP11bomber_dataSt6vectorIS1_SaIS1_EEEdeEv>
    4419:	8b 95 4c fb ff ff    	mov    -0x4b4(%rbp),%edx
    441f:	89 50 04             	mov    %edx,0x4(%rax)
    4422:	48 8d 85 e0 fa ff ff 	lea    -0x520(%rbp),%rax
    4429:	48 89 c7             	mov    %rax,%rdi
    442c:	e8 45 15 00 00       	callq  5976 <_ZNK9__gnu_cxx17__normal_iteratorIP11bomber_dataSt6vectorIS1_SaIS1_EEEdeEv>
    4431:	8b 40 18             	mov    0x18(%rax),%eax
    4434:	89 85 70 fb ff ff    	mov    %eax,-0x490(%rbp)
    443a:	48 8d 85 44 fb ff ff 	lea    -0x4bc(%rbp),%rax
    4441:	48 89 85 78 fb ff ff 	mov    %rax,-0x488(%rbp)
    4448:	48 8d 85 70 fb ff ff 	lea    -0x490(%rbp),%rax
    444f:	b9 00 00 00 00       	mov    $0x0,%ecx
    4454:	ba 00 00 00 00       	mov    $0x0,%edx
    4459:	48 89 c6             	mov    %rax,%rsi
    445c:	bf 00 00 00 00       	mov    $0x0,%edi
    4461:	e8 39 42 00 00       	callq  869f <_Z12print_outputP22incoming_message_printP22outgoing_message_printP13obstacle_dataP11object_data>
    4466:	48 8d 85 e0 fa ff ff 	lea    -0x520(%rbp),%rax
    446d:	48 89 c7             	mov    %rax,%rdi
    4470:	e8 01 15 00 00       	callq  5976 <_ZNK9__gnu_cxx17__normal_iteratorIP11bomber_dataSt6vectorIS1_SaIS1_EEEdeEv>
    4475:	8b 40 0c             	mov    0xc(%rax),%eax
    4478:	48 8d 95 44 fb ff ff 	lea    -0x4bc(%rbp),%rdx
    447f:	48 89 d6             	mov    %rdx,%rsi
    4482:	89 c7                	mov    %eax,%edi
    4484:	e8 49 45 00 00       	callq  89d2 <_Z12send_messageiP16outgoing_message>
    4489:	e9 a7 03 00 00       	jmpq   4835 <main+0x1cb3>
    448e:	48 8d 3d 48 4c 00 00 	lea    0x4c48(%rip),%rdi        # 90dd <_ZStL19piecewise_construct+0xd5>
    4495:	e8 b6 e1 ff ff       	callq  2650 <puts@plt>
    449a:	48 8d 85 68 fc ff ff 	lea    -0x398(%rbp),%rax
    44a1:	48 89 c1             	mov    %rax,%rcx
    44a4:	ba 01 00 00 00       	mov    $0x1,%edx
    44a9:	be 01 00 00 00       	mov    $0x1,%esi
    44ae:	bf 01 00 00 00       	mov    $0x1,%edi
    44b3:	e8 38 e0 ff ff       	callq  24f0 <socketpair@plt>
    44b8:	e8 33 df ff ff       	callq  23f0 <fork@plt>
    44bd:	89 85 d4 fa ff ff    	mov    %eax,-0x52c(%rbp)
    44c3:	83 bd d4 fa ff ff 00 	cmpl   $0x0,-0x52c(%rbp)
    44ca:	0f 95 c0             	setne  %al
    44cd:	84 c0                	test   %al,%al
    44cf:	0f 84 4b 01 00 00    	je     4620 <main+0x1a9e>
    44d5:	8b 85 68 fc ff ff    	mov    -0x398(%rbp),%eax
    44db:	89 c7                	mov    %eax,%edi
    44dd:	e8 fe e1 ff ff       	callq  26e0 <close@plt>
    44e2:	c6 85 54 fc ff ff 01 	movb   $0x1,-0x3ac(%rbp)
    44e9:	8b 85 6c fc ff ff    	mov    -0x394(%rbp),%eax
    44ef:	89 85 60 fc ff ff    	mov    %eax,-0x3a0(%rbp)
    44f5:	8b 85 68 fc ff ff    	mov    -0x398(%rbp),%eax
    44fb:	89 85 5c fc ff ff    	mov    %eax,-0x3a4(%rbp)
    4501:	48 8b 85 28 fc ff ff 	mov    -0x3d8(%rbp),%rax
    4508:	48 89 85 48 fc ff ff 	mov    %rax,-0x3b8(%rbp)
    450f:	8b 85 30 fc ff ff    	mov    -0x3d0(%rbp),%eax
    4515:	89 85 50 fc ff ff    	mov    %eax,-0x3b0(%rbp)
    451b:	48 8d 85 e0 fa ff ff 	lea    -0x520(%rbp),%rax
    4522:	48 89 c7             	mov    %rax,%rdi
    4525:	e8 4c 14 00 00       	callq  5976 <_ZNK9__gnu_cxx17__normal_iteratorIP11bomber_dataSt6vectorIS1_SaIS1_EEEdeEv>
    452a:	8b 00                	mov    (%rax),%eax
    452c:	89 85 40 fc ff ff    	mov    %eax,-0x3c0(%rbp)
    4532:	48 8d 85 e0 fa ff ff 	lea    -0x520(%rbp),%rax
    4539:	48 89 c7             	mov    %rax,%rdi
    453c:	e8 35 14 00 00       	callq  5976 <_ZNK9__gnu_cxx17__normal_iteratorIP11bomber_dataSt6vectorIS1_SaIS1_EEEdeEv>
    4541:	8b 40 04             	mov    0x4(%rax),%eax
    4544:	89 85 44 fc ff ff    	mov    %eax,-0x3bc(%rbp)
    454a:	8b 85 d4 fa ff ff    	mov    -0x52c(%rbp),%eax
    4550:	89 85 58 fc ff ff    	mov    %eax,-0x3a8(%rbp)
    4556:	48 8d 95 40 fc ff ff 	lea    -0x3c0(%rbp),%rdx
    455d:	48 8d 85 e0 fb ff ff 	lea    -0x420(%rbp),%rax
    4564:	48 89 d6             	mov    %rdx,%rsi
    4567:	48 89 c7             	mov    %rax,%rdi
    456a:	e8 e1 14 00 00       	callq  5a50 <_ZNSt6vectorI11bomb_structSaIS0_EE9push_backERKS0_>
    456f:	48 8d 85 e0 fa ff ff 	lea    -0x520(%rbp),%rax
    4576:	48 89 c7             	mov    %rax,%rdi
    4579:	e8 f8 13 00 00       	callq  5976 <_ZNK9__gnu_cxx17__normal_iteratorIP11bomber_dataSt6vectorIS1_SaIS1_EEEdeEv>
    457e:	8b 40 04             	mov    0x4(%rax),%eax
    4581:	89 c3                	mov    %eax,%ebx
    4583:	48 8d 85 e0 fa ff ff 	lea    -0x520(%rbp),%rax
    458a:	48 89 c7             	mov    %rax,%rdi
    458d:	e8 e4 13 00 00       	callq  5976 <_ZNK9__gnu_cxx17__normal_iteratorIP11bomber_dataSt6vectorIS1_SaIS1_EEEdeEv>
    4592:	8b 00                	mov    (%rax),%eax
    4594:	89 c6                	mov    %eax,%esi
    4596:	48 8b 85 00 fb ff ff 	mov    -0x500(%rbp),%rax
    459d:	b9 01 00 00 00       	mov    $0x1,%ecx
    45a2:	89 da                	mov    %ebx,%edx
    45a4:	48 89 c7             	mov    %rax,%rdi
    45a7:	e8 7e e2 ff ff       	callq  282a <_Z12set_map_itemPP15object_map_dataii11object_type>
    45ac:	c7 85 44 fb ff ff 02 	movl   $0x2,-0x4bc(%rbp)
    45b3:	00 00 00 
    45b6:	c7 85 48 fb ff ff 01 	movl   $0x1,-0x4b8(%rbp)
    45bd:	00 00 00 
    45c0:	8b 85 d4 fa ff ff    	mov    -0x52c(%rbp),%eax
    45c6:	89 85 70 fb ff ff    	mov    %eax,-0x490(%rbp)
    45cc:	48 8d 85 44 fb ff ff 	lea    -0x4bc(%rbp),%rax
    45d3:	48 89 85 78 fb ff ff 	mov    %rax,-0x488(%rbp)
    45da:	48 8d 85 70 fb ff ff 	lea    -0x490(%rbp),%rax
    45e1:	b9 00 00 00 00       	mov    $0x0,%ecx
    45e6:	ba 00 00 00 00       	mov    $0x0,%edx
    45eb:	48 89 c6             	mov    %rax,%rsi
    45ee:	bf 00 00 00 00       	mov    $0x0,%edi
    45f3:	e8 a7 40 00 00       	callq  869f <_Z12print_outputP22incoming_message_printP22outgoing_message_printP13obstacle_dataP11object_data>
    45f8:	48 8d 85 e0 fa ff ff 	lea    -0x520(%rbp),%rax
    45ff:	48 89 c7             	mov    %rax,%rdi
    4602:	e8 6f 13 00 00       	callq  5976 <_ZNK9__gnu_cxx17__normal_iteratorIP11bomber_dataSt6vectorIS1_SaIS1_EEEdeEv>
    4607:	8b 40 0c             	mov    0xc(%rax),%eax
    460a:	48 8d 95 44 fb ff ff 	lea    -0x4bc(%rbp),%rdx
    4611:	48 89 d6             	mov    %rdx,%rsi
    4614:	89 c7                	mov    %eax,%edi
    4616:	e8 b7 43 00 00       	callq  89d2 <_Z12send_messageiP16outgoing_message>
    461b:	e9 15 02 00 00       	jmpq   4835 <main+0x1cb3>
    4620:	bf 18 00 00 00       	mov    $0x18,%edi
    4625:	e8 96 df ff ff       	callq  25c0 <malloc@plt>
    462a:	48 89 85 28 fb ff ff 	mov    %rax,-0x4d8(%rbp)
    4631:	48 8b 95 28 fc ff ff 	mov    -0x3d8(%rbp),%rdx
    4638:	48 8d 85 70 fc ff ff 	lea    -0x390(%rbp),%rax
    463f:	48 89 d6             	mov    %rdx,%rsi
    4642:	48 89 c7             	mov    %rax,%rdi
    4645:	e8 db 05 00 00       	callq  4c25 <_ZNSt7__cxx119to_stringEl>
    464a:	48 8d 85 40 fc ff ff 	lea    -0x3c0(%rbp),%rax
    4651:	48 89 c7             	mov    %rax,%rdi
    4654:	e8 57 e0 ff ff       	callq  26b0 <_ZNSaIcEC1Ev@plt>
    4659:	48 8d 95 40 fc ff ff 	lea    -0x3c0(%rbp),%rdx
    4660:	48 8d 85 90 fc ff ff 	lea    -0x370(%rbp),%rax
    4667:	48 8d 35 7d 4a 00 00 	lea    0x4a7d(%rip),%rsi        # 90eb <_ZStL19piecewise_construct+0xe3>
    466e:	48 89 c7             	mov    %rax,%rdi
    4671:	e8 5a df ff ff       	callq  25d0 <_ZNSt7__cxx1112basic_stringIcSt11char_traitsIcESaIcEEC1EPKcRKS3_@plt>
    4676:	48 8d 85 40 fc ff ff 	lea    -0x3c0(%rbp),%rax
    467d:	48 89 c7             	mov    %rax,%rdi
    4680:	e8 db de ff ff       	callq  2560 <_ZNSaIcED1Ev@plt>
    4685:	48 8d 85 90 fc ff ff 	lea    -0x370(%rbp),%rax
    468c:	48 89 c7             	mov    %rax,%rdi
    468f:	e8 9c df ff ff       	callq  2630 <_ZNKSt7__cxx1112basic_stringIcSt11char_traitsIcESaIcEE6lengthEv@plt>
    4694:	48 89 c7             	mov    %rax,%rdi
    4697:	e8 24 df ff ff       	callq  25c0 <malloc@plt>
    469c:	48 89 c2             	mov    %rax,%rdx
    469f:	48 8b 85 28 fb ff ff 	mov    -0x4d8(%rbp),%rax
    46a6:	48 89 10             	mov    %rdx,(%rax)
    46a9:	c7 85 94 fa ff ff 00 	movl   $0x0,-0x56c(%rbp)
    46b0:	00 00 00 
    46b3:	8b 85 94 fa ff ff    	mov    -0x56c(%rbp),%eax
    46b9:	48 63 d8             	movslq %eax,%rbx
    46bc:	48 8d 85 90 fc ff ff 	lea    -0x370(%rbp),%rax
    46c3:	48 89 c7             	mov    %rax,%rdi
    46c6:	e8 65 df ff ff       	callq  2630 <_ZNKSt7__cxx1112basic_stringIcSt11char_traitsIcESaIcEE6lengthEv@plt>
    46cb:	48 39 c3             	cmp    %rax,%rbx
    46ce:	0f 92 c0             	setb   %al
    46d1:	84 c0                	test   %al,%al
    46d3:	74 3f                	je     4714 <main+0x1b92>
    46d5:	8b 85 94 fa ff ff    	mov    -0x56c(%rbp),%eax
    46db:	48 63 d0             	movslq %eax,%rdx
    46de:	48 8d 85 90 fc ff ff 	lea    -0x370(%rbp),%rax
    46e5:	48 89 d6             	mov    %rdx,%rsi
    46e8:	48 89 c7             	mov    %rax,%rdi
    46eb:	e8 e0 df ff ff       	callq  26d0 <_ZNSt7__cxx1112basic_stringIcSt11char_traitsIcESaIcEE2atEm@plt>
    46f0:	48 8b 95 28 fb ff ff 	mov    -0x4d8(%rbp),%rdx
    46f7:	48 8b 0a             	mov    (%rdx),%rcx
    46fa:	8b 95 94 fa ff ff    	mov    -0x56c(%rbp),%edx
    4700:	48 63 d2             	movslq %edx,%rdx
    4703:	48 01 ca             	add    %rcx,%rdx
    4706:	0f b6 00             	movzbl (%rax),%eax
    4709:	88 02                	mov    %al,(%rdx)
    470b:	83 85 94 fa ff ff 01 	addl   $0x1,-0x56c(%rbp)
    4712:	eb 9f                	jmp    46b3 <main+0x1b31>
    4714:	48 8d 85 70 fc ff ff 	lea    -0x390(%rbp),%rax
    471b:	48 89 c7             	mov    %rax,%rdi
    471e:	e8 0d df ff ff       	callq  2630 <_ZNKSt7__cxx1112basic_stringIcSt11char_traitsIcESaIcEE6lengthEv@plt>
    4723:	48 8b 95 28 fb ff ff 	mov    -0x4d8(%rbp),%rdx
    472a:	48 8d 5a 08          	lea    0x8(%rdx),%rbx
    472e:	48 89 c7             	mov    %rax,%rdi
    4731:	e8 8a de ff ff       	callq  25c0 <malloc@plt>
    4736:	48 89 03             	mov    %rax,(%rbx)
    4739:	c7 85 98 fa ff ff 00 	movl   $0x0,-0x568(%rbp)
    4740:	00 00 00 
    4743:	8b 85 98 fa ff ff    	mov    -0x568(%rbp),%eax
    4749:	48 63 d8             	movslq %eax,%rbx
    474c:	48 8d 85 70 fc ff ff 	lea    -0x390(%rbp),%rax
    4753:	48 89 c7             	mov    %rax,%rdi
    4756:	e8 d5 de ff ff       	callq  2630 <_ZNKSt7__cxx1112basic_stringIcSt11char_traitsIcESaIcEE6lengthEv@plt>
    475b:	48 39 c3             	cmp    %rax,%rbx
    475e:	0f 92 c0             	setb   %al
    4761:	84 c0                	test   %al,%al
    4763:	74 43                	je     47a8 <main+0x1c26>
    4765:	8b 85 98 fa ff ff    	mov    -0x568(%rbp),%eax
    476b:	48 63 d0             	movslq %eax,%rdx
    476e:	48 8d 85 70 fc ff ff 	lea    -0x390(%rbp),%rax
    4775:	48 89 d6             	mov    %rdx,%rsi
    4778:	48 89 c7             	mov    %rax,%rdi
    477b:	e8 50 df ff ff       	callq  26d0 <_ZNSt7__cxx1112basic_stringIcSt11char_traitsIcESaIcEE2atEm@plt>
    4780:	48 8b 95 28 fb ff ff 	mov    -0x4d8(%rbp),%rdx
    4787:	48 83 c2 08          	add    $0x8,%rdx
    478b:	48 8b 0a             	mov    (%rdx),%rcx
    478e:	8b 95 98 fa ff ff    	mov    -0x568(%rbp),%edx
    4794:	48 63 d2             	movslq %edx,%rdx
    4797:	48 01 ca             	add    %rcx,%rdx
    479a:	0f b6 00             	movzbl (%rax),%eax
    479d:	88 02                	mov    %al,(%rdx)
    479f:	83 85 98 fa ff ff 01 	addl   $0x1,-0x568(%rbp)
    47a6:	eb 9b                	jmp    4743 <main+0x1bc1>
    47a8:	48 8b 85 28 fb ff ff 	mov    -0x4d8(%rbp),%rax
    47af:	48 83 c0 10          	add    $0x10,%rax
    47b3:	48 c7 00 00 00 00 00 	movq   $0x0,(%rax)
    47ba:	8b 85 68 fc ff ff    	mov    -0x398(%rbp),%eax
    47c0:	be 00 00 00 00       	mov    $0x0,%esi
    47c5:	89 c7                	mov    %eax,%edi
    47c7:	e8 44 dd ff ff       	callq  2510 <dup2@plt>
    47cc:	8b 85 68 fc ff ff    	mov    -0x398(%rbp),%eax
    47d2:	be 01 00 00 00       	mov    $0x1,%esi
    47d7:	89 c7                	mov    %eax,%edi
    47d9:	e8 32 dd ff ff       	callq  2510 <dup2@plt>
    47de:	8b 85 68 fc ff ff    	mov    -0x398(%rbp),%eax
    47e4:	89 c7                	mov    %eax,%edi
    47e6:	e8 f5 de ff ff       	callq  26e0 <close@plt>
    47eb:	8b 85 6c fc ff ff    	mov    -0x394(%rbp),%eax
    47f1:	89 c7                	mov    %eax,%edi
    47f3:	e8 e8 de ff ff       	callq  26e0 <close@plt>
    47f8:	48 8b 85 28 fb ff ff 	mov    -0x4d8(%rbp),%rax
    47ff:	48 8b 00             	mov    (%rax),%rax
    4802:	48 8b 95 28 fb ff ff 	mov    -0x4d8(%rbp),%rdx
    4809:	48 89 d6             	mov    %rdx,%rsi
    480c:	48 89 c7             	mov    %rax,%rdi
    480f:	e8 9c dc ff ff       	callq  24b0 <execvp@plt>
    4814:	48 8d 85 90 fc ff ff 	lea    -0x370(%rbp),%rax
    481b:	48 89 c7             	mov    %rax,%rdi
    481e:	e8 4d dc ff ff       	callq  2470 <_ZNSt7__cxx1112basic_stringIcSt11char_traitsIcESaIcEED1Ev@plt>
    4823:	48 8d 85 70 fc ff ff 	lea    -0x390(%rbp),%rax
    482a:	48 89 c7             	mov    %rax,%rdi
    482d:	e8 3e dc ff ff       	callq  2470 <_ZNSt7__cxx1112basic_stringIcSt11char_traitsIcESaIcEED1Ev@plt>
    4832:	eb 01                	jmp    4835 <main+0x1cb3>
    4834:	90                   	nop
    4835:	48 83 bd 18 fb ff ff 	cmpq   $0x0,-0x4e8(%rbp)
    483c:	00 
    483d:	74 0f                	je     484e <main+0x1ccc>
    483f:	48 8b 85 18 fb ff ff 	mov    -0x4e8(%rbp),%rax
    4846:	48 89 c7             	mov    %rax,%rdi
    4849:	e8 62 dd ff ff       	callq  25b0 <_ZdaPv@plt>
    484e:	48 8d 85 e0 fa ff ff 	lea    -0x520(%rbp),%rax
    4855:	be 00 00 00 00       	mov    $0x0,%esi
    485a:	48 89 c7             	mov    %rax,%rdi
    485d:	e8 ae 10 00 00       	callq  5910 <_ZN9__gnu_cxx17__normal_iteratorIP11bomber_dataSt6vectorIS1_SaIS1_EEEppEi>
    4862:	e9 6b f0 ff ff       	jmpq   38d2 <main+0xd50>
    4867:	bf e8 03 00 00       	mov    $0x3e8,%edi
    486c:	e8 7f dd ff ff       	callq  25f0 <usleep@plt>
    4871:	e9 59 ea ff ff       	jmpq   32cf <main+0x74d>
    4876:	48 8d 3d 7a 48 00 00 	lea    0x487a(%rip),%rdi        # 90f7 <_ZStL19piecewise_construct+0xef>
    487d:	e8 ce dd ff ff       	callq  2650 <puts@plt>
    4882:	c7 85 9c fa ff ff 00 	movl   $0x0,-0x564(%rbp)
    4889:	00 00 00 
    488c:	8b 85 3c fa ff ff    	mov    -0x5c4(%rbp),%eax
    4892:	39 85 9c fa ff ff    	cmp    %eax,-0x564(%rbp)
    4898:	7d 50                	jge    48ea <main+0x1d68>
    489a:	8b 85 9c fa ff ff    	mov    -0x564(%rbp),%eax
    48a0:	48 98                	cltq   
    48a2:	48 8d 14 c5 00 00 00 	lea    0x0(,%rax,8),%rdx
    48a9:	00 
    48aa:	48 8b 85 f8 fa ff ff 	mov    -0x508(%rbp),%rax
    48b1:	48 01 d0             	add    %rdx,%rax
    48b4:	48 8b 00             	mov    (%rax),%rax
    48b7:	48 85 c0             	test   %rax,%rax
    48ba:	74 25                	je     48e1 <main+0x1d5f>
    48bc:	8b 85 9c fa ff ff    	mov    -0x564(%rbp),%eax
    48c2:	48 98                	cltq   
    48c4:	48 8d 14 c5 00 00 00 	lea    0x0(,%rax,8),%rdx
    48cb:	00 
    48cc:	48 8b 85 f8 fa ff ff 	mov    -0x508(%rbp),%rax
    48d3:	48 01 d0             	add    %rdx,%rax
    48d6:	48 8b 00             	mov    (%rax),%rax
    48d9:	48 89 c7             	mov    %rax,%rdi
    48dc:	e8 cf dc ff ff       	callq  25b0 <_ZdaPv@plt>
    48e1:	83 85 9c fa ff ff 01 	addl   $0x1,-0x564(%rbp)
    48e8:	eb a2                	jmp    488c <main+0x1d0a>
    48ea:	48 83 bd f8 fa ff ff 	cmpq   $0x0,-0x508(%rbp)
    48f1:	00 
    48f2:	74 0f                	je     4903 <main+0x1d81>
    48f4:	48 8b 85 f8 fa ff ff 	mov    -0x508(%rbp),%rax
    48fb:	48 89 c7             	mov    %rax,%rdi
    48fe:	e8 ad dc ff ff       	callq  25b0 <_ZdaPv@plt>
    4903:	c7 85 a0 fa ff ff 00 	movl   $0x0,-0x560(%rbp)
    490a:	00 00 00 
    490d:	8b 85 3c fa ff ff    	mov    -0x5c4(%rbp),%eax
    4913:	39 85 a0 fa ff ff    	cmp    %eax,-0x560(%rbp)
    4919:	7d 50                	jge    496b <main+0x1de9>
    491b:	8b 85 a0 fa ff ff    	mov    -0x560(%rbp),%eax
    4921:	48 98                	cltq   
    4923:	48 8d 14 c5 00 00 00 	lea    0x0(,%rax,8),%rdx
    492a:	00 
    492b:	48 8b 85 00 fb ff ff 	mov    -0x500(%rbp),%rax
    4932:	48 01 d0             	add    %rdx,%rax
    4935:	48 8b 00             	mov    (%rax),%rax
    4938:	48 85 c0             	test   %rax,%rax
    493b:	74 25                	je     4962 <main+0x1de0>
    493d:	8b 85 a0 fa ff ff    	mov    -0x560(%rbp),%eax
    4943:	48 98                	cltq   
    4945:	48 8d 14 c5 00 00 00 	lea    0x0(,%rax,8),%rdx
    494c:	00 
    494d:	48 8b 85 00 fb ff ff 	mov    -0x500(%rbp),%rax
    4954:	48 01 d0             	add    %rdx,%rax
    4957:	48 8b 00             	mov    (%rax),%rax
    495a:	48 89 c7             	mov    %rax,%rdi
    495d:	e8 4e dc ff ff       	callq  25b0 <_ZdaPv@plt>
    4962:	83 85 a0 fa ff ff 01 	addl   $0x1,-0x560(%rbp)
    4969:	eb a2                	jmp    490d <main+0x1d8b>
    496b:	48 83 bd 00 fb ff ff 	cmpq   $0x0,-0x500(%rbp)
    4972:	00 
    4973:	74 0f                	je     4984 <main+0x1e02>
    4975:	48 8b 85 00 fb ff ff 	mov    -0x500(%rbp),%rax
    497c:	48 89 c7             	mov    %rax,%rdi
    497f:	e8 2c dc ff ff       	callq  25b0 <_ZdaPv@plt>
    4984:	c7 85 a4 fa ff ff 00 	movl   $0x0,-0x55c(%rbp)
    498b:	00 00 00 
    498e:	8b 85 3c fa ff ff    	mov    -0x5c4(%rbp),%eax
    4994:	39 85 a4 fa ff ff    	cmp    %eax,-0x55c(%rbp)
    499a:	7d 50                	jge    49ec <main+0x1e6a>
    499c:	8b 85 a4 fa ff ff    	mov    -0x55c(%rbp),%eax
    49a2:	48 98                	cltq   
    49a4:	48 8d 14 c5 00 00 00 	lea    0x0(,%rax,8),%rdx
    49ab:	00 
    49ac:	48 8b 85 08 fb ff ff 	mov    -0x4f8(%rbp),%rax
    49b3:	48 01 d0             	add    %rdx,%rax
    49b6:	48 8b 00             	mov    (%rax),%rax
    49b9:	48 85 c0             	test   %rax,%rax
    49bc:	74 25                	je     49e3 <main+0x1e61>
    49be:	8b 85 a4 fa ff ff    	mov    -0x55c(%rbp),%eax
    49c4:	48 98                	cltq   
    49c6:	48 8d 14 c5 00 00 00 	lea    0x0(,%rax,8),%rdx
    49cd:	00 
    49ce:	48 8b 85 08 fb ff ff 	mov    -0x4f8(%rbp),%rax
    49d5:	48 01 d0             	add    %rdx,%rax
    49d8:	48 8b 00             	mov    (%rax),%rax
    49db:	48 89 c7             	mov    %rax,%rdi
    49de:	e8 cd db ff ff       	callq  25b0 <_ZdaPv@plt>
    49e3:	83 85 a4 fa ff ff 01 	addl   $0x1,-0x55c(%rbp)
    49ea:	eb a2                	jmp    498e <main+0x1e0c>
    49ec:	48 83 bd 08 fb ff ff 	cmpq   $0x0,-0x4f8(%rbp)
    49f3:	00 
    49f4:	74 0f                	je     4a05 <main+0x1e83>
    49f6:	48 8b 85 08 fb ff ff 	mov    -0x4f8(%rbp),%rax
    49fd:	48 89 c7             	mov    %rax,%rdi
    4a00:	e8 ab db ff ff       	callq  25b0 <_ZdaPv@plt>
    4a05:	48 8d 85 00 fc ff ff 	lea    -0x400(%rbp),%rax
    4a0c:	48 89 c7             	mov    %rax,%rdi
    4a0f:	e8 dc 0a 00 00       	callq  54f0 <_ZNSt6vectorIA2_iSaIS0_EED1Ev>
    4a14:	48 8d 85 e0 fb ff ff 	lea    -0x420(%rbp),%rax
    4a1b:	48 89 c7             	mov    %rax,%rdi
    4a1e:	e8 e7 09 00 00       	callq  540a <_ZNSt6vectorI11bomb_structSaIS0_EED1Ev>
    4a23:	48 8d 85 c0 fb ff ff 	lea    -0x440(%rbp),%rax
    4a2a:	48 89 c7             	mov    %rax,%rdi
    4a2d:	e8 e2 08 00 00       	callq  5314 <_ZNSt6vectorI11bomber_dataSaIS0_EED1Ev>
    4a32:	48 8d 85 a0 fb ff ff 	lea    -0x460(%rbp),%rax
    4a39:	48 89 c7             	mov    %rax,%rdi
    4a3c:	e8 ed 07 00 00       	callq  522e <_ZNSt6vectorI13obstacle_dataSaIS0_EED1Ev>
    4a41:	48 8d 85 80 fb ff ff 	lea    -0x480(%rbp),%rax
    4a48:	48 89 c7             	mov    %rax,%rdi
    4a4b:	e8 e8 06 00 00       	callq  5138 <_ZNSt6vectorIS_IiSaIiEESaIS1_EED1Ev>
    4a50:	b8 00 00 00 00       	mov    $0x0,%eax
    4a55:	48 8b 4d d8          	mov    -0x28(%rbp),%rcx
    4a59:	64 48 33 0c 25 28 00 	xor    %fs:0x28,%rcx
    4a60:	00 00 
    4a62:	0f 84 33 01 00 00    	je     4b9b <main+0x2019>
    4a68:	e9 29 01 00 00       	jmpq   4b96 <main+0x2014>
    4a6d:	f3 0f 1e fa          	endbr64 
    4a71:	48 89 c3             	mov    %rax,%rbx
    4a74:	48 8d 85 10 fe ff ff 	lea    -0x1f0(%rbp),%rax
    4a7b:	48 89 c7             	mov    %rax,%rdi
    4a7e:	e8 bd d9 ff ff       	callq  2440 <_ZNSt7__cxx1119basic_istringstreamIcSt11char_traitsIcESaIcEED1Ev@plt>
    4a83:	eb 4f                	jmp    4ad4 <main+0x1f52>
    4a85:	f3 0f 1e fa          	endbr64 
    4a89:	48 89 c3             	mov    %rax,%rbx
    4a8c:	48 8d 85 10 fe ff ff 	lea    -0x1f0(%rbp),%rax
    4a93:	48 89 c7             	mov    %rax,%rdi
    4a96:	e8 a5 d9 ff ff       	callq  2440 <_ZNSt7__cxx1119basic_istringstreamIcSt11char_traitsIcESaIcEED1Ev@plt>
    4a9b:	eb 37                	jmp    4ad4 <main+0x1f52>
    4a9d:	f3 0f 1e fa          	endbr64 
    4aa1:	48 89 c3             	mov    %rax,%rbx
    4aa4:	48 8d 85 10 fe ff ff 	lea    -0x1f0(%rbp),%rax
    4aab:	48 89 c7             	mov    %rax,%rdi
    4aae:	e8 8d d9 ff ff       	callq  2440 <_ZNSt7__cxx1119basic_istringstreamIcSt11char_traitsIcESaIcEED1Ev@plt>
    4ab3:	eb 07                	jmp    4abc <main+0x1f3a>
    4ab5:	f3 0f 1e fa          	endbr64 
    4ab9:	48 89 c3             	mov    %rax,%rbx
    4abc:	48 8d 85 90 fc ff ff 	lea    -0x370(%rbp),%rax
    4ac3:	48 89 c7             	mov    %rax,%rdi
    4ac6:	e8 75 d9 ff ff       	callq  2440 <_ZNSt7__cxx1119basic_istringstreamIcSt11char_traitsIcESaIcEED1Ev@plt>
    4acb:	eb 07                	jmp    4ad4 <main+0x1f52>
    4acd:	f3 0f 1e fa          	endbr64 
    4ad1:	48 89 c3             	mov    %rax,%rbx
    4ad4:	48 8d 85 70 fc ff ff 	lea    -0x390(%rbp),%rax
    4adb:	48 89 c7             	mov    %rax,%rdi
    4ade:	e8 8d d9 ff ff       	callq  2470 <_ZNSt7__cxx1112basic_stringIcSt11char_traitsIcESaIcEED1Ev@plt>
    4ae3:	eb 5b                	jmp    4b40 <main+0x1fbe>
    4ae5:	f3 0f 1e fa          	endbr64 
    4ae9:	48 89 c3             	mov    %rax,%rbx
    4aec:	eb 52                	jmp    4b40 <main+0x1fbe>
    4aee:	f3 0f 1e fa          	endbr64 
    4af2:	48 89 c3             	mov    %rax,%rbx
    4af5:	48 8d 85 40 fc ff ff 	lea    -0x3c0(%rbp),%rax
    4afc:	48 89 c7             	mov    %rax,%rdi
    4aff:	e8 5c da ff ff       	callq  2560 <_ZNSaIcED1Ev@plt>
    4b04:	eb 16                	jmp    4b1c <main+0x1f9a>
    4b06:	f3 0f 1e fa          	endbr64 
    4b0a:	48 89 c3             	mov    %rax,%rbx
    4b0d:	48 8d 85 90 fc ff ff 	lea    -0x370(%rbp),%rax
    4b14:	48 89 c7             	mov    %rax,%rdi
    4b17:	e8 54 d9 ff ff       	callq  2470 <_ZNSt7__cxx1112basic_stringIcSt11char_traitsIcESaIcEED1Ev@plt>
    4b1c:	48 8d 85 70 fc ff ff 	lea    -0x390(%rbp),%rax
    4b23:	48 89 c7             	mov    %rax,%rdi
    4b26:	e8 45 d9 ff ff       	callq  2470 <_ZNSt7__cxx1112basic_stringIcSt11char_traitsIcESaIcEED1Ev@plt>
    4b2b:	48 89 d8             	mov    %rbx,%rax
    4b2e:	eb 04                	jmp    4b34 <main+0x1fb2>
    4b30:	f3 0f 1e fa          	endbr64 
    4b34:	48 89 c3             	mov    %rax,%rbx
    4b37:	eb 07                	jmp    4b40 <main+0x1fbe>
    4b39:	f3 0f 1e fa          	endbr64 
    4b3d:	48 89 c3             	mov    %rax,%rbx
    4b40:	48 8d 85 00 fc ff ff 	lea    -0x400(%rbp),%rax
    4b47:	48 89 c7             	mov    %rax,%rdi
    4b4a:	e8 a1 09 00 00       	callq  54f0 <_ZNSt6vectorIA2_iSaIS0_EED1Ev>
    4b4f:	48 8d 85 e0 fb ff ff 	lea    -0x420(%rbp),%rax
    4b56:	48 89 c7             	mov    %rax,%rdi
    4b59:	e8 ac 08 00 00       	callq  540a <_ZNSt6vectorI11bomb_structSaIS0_EED1Ev>
    4b5e:	48 8d 85 c0 fb ff ff 	lea    -0x440(%rbp),%rax
    4b65:	48 89 c7             	mov    %rax,%rdi
    4b68:	e8 a7 07 00 00       	callq  5314 <_ZNSt6vectorI11bomber_dataSaIS0_EED1Ev>
    4b6d:	48 8d 85 a0 fb ff ff 	lea    -0x460(%rbp),%rax
    4b74:	48 89 c7             	mov    %rax,%rdi
    4b77:	e8 b2 06 00 00       	callq  522e <_ZNSt6vectorI13obstacle_dataSaIS0_EED1Ev>
    4b7c:	48 8d 85 80 fb ff ff 	lea    -0x480(%rbp),%rax
    4b83:	48 89 c7             	mov    %rax,%rdi
    4b86:	e8 ad 05 00 00       	callq  5138 <_ZNSt6vectorIS_IiSaIiEESaIS1_EED1Ev>
    4b8b:	48 89 d8             	mov    %rbx,%rax
    4b8e:	48 89 c7             	mov    %rax,%rdi
    4b91:	e8 0a db ff ff       	callq  26a0 <_Unwind_Resume@plt>
    4b96:	e8 e5 d9 ff ff       	callq  2580 <__stack_chk_fail@plt>
    4b9b:	48 81 c4 c8 05 00 00 	add    $0x5c8,%rsp
    4ba2:	5b                   	pop    %rbx
    4ba3:	41 5c                	pop    %r12
    4ba5:	41 5d                	pop    %r13
    4ba7:	5d                   	pop    %rbp
    4ba8:	c3                   	retq   

0000000000004ba9 <_Z41__static_initialization_and_destruction_0ii>:
    4ba9:	f3 0f 1e fa          	endbr64 
    4bad:	55                   	push   %rbp
    4bae:	48 89 e5             	mov    %rsp,%rbp
    4bb1:	48 83 ec 10          	sub    $0x10,%rsp
    4bb5:	89 7d fc             	mov    %edi,-0x4(%rbp)
    4bb8:	89 75 f8             	mov    %esi,-0x8(%rbp)
    4bbb:	83 7d fc 01          	cmpl   $0x1,-0x4(%rbp)
    4bbf:	75 32                	jne    4bf3 <_Z41__static_initialization_and_destruction_0ii+0x4a>
    4bc1:	81 7d f8 ff ff 00 00 	cmpl   $0xffff,-0x8(%rbp)
    4bc8:	75 29                	jne    4bf3 <_Z41__static_initialization_and_destruction_0ii+0x4a>
    4bca:	48 8d 3d 88 95 00 00 	lea    0x9588(%rip),%rdi        # e159 <_ZStL8__ioinit>
    4bd1:	e8 6a da ff ff       	callq  2640 <_ZNSt8ios_base4InitC1Ev@plt>
    4bd6:	48 8d 15 2b 94 00 00 	lea    0x942b(%rip),%rdx        # e008 <__dso_handle>
    4bdd:	48 8d 35 75 95 00 00 	lea    0x9575(%rip),%rsi        # e159 <_ZStL8__ioinit>
    4be4:	48 8b 05 0d 94 00 00 	mov    0x940d(%rip),%rax        # dff8 <_ZNSt8ios_base4InitD1Ev@GLIBCXX_3.4>
    4beb:	48 89 c7             	mov    %rax,%rdi
    4bee:	e8 0d d9 ff ff       	callq  2500 <__cxa_atexit@plt>
    4bf3:	90                   	nop
    4bf4:	c9                   	leaveq 
    4bf5:	c3                   	retq   

0000000000004bf6 <_GLOBAL__sub_I__Z12get_map_itemPP15object_map_dataii>:
    4bf6:	f3 0f 1e fa          	endbr64 
    4bfa:	55                   	push   %rbp
    4bfb:	48 89 e5             	mov    %rsp,%rbp
    4bfe:	be ff ff 00 00       	mov    $0xffff,%esi
    4c03:	bf 01 00 00 00       	mov    $0x1,%edi
    4c08:	e8 9c ff ff ff       	callq  4ba9 <_Z41__static_initialization_and_destruction_0ii>
    4c0d:	5d                   	pop    %rbp
    4c0e:	c3                   	retq   

0000000000004c0f <_ZnwmPv>:
    4c0f:	f3 0f 1e fa          	endbr64 
    4c13:	55                   	push   %rbp
    4c14:	48 89 e5             	mov    %rsp,%rbp
    4c17:	48 89 7d f8          	mov    %rdi,-0x8(%rbp)
    4c1b:	48 89 75 f0          	mov    %rsi,-0x10(%rbp)
    4c1f:	48 8b 45 f0          	mov    -0x10(%rbp),%rax
    4c23:	5d                   	pop    %rbp
    4c24:	c3                   	retq   

0000000000004c25 <_ZNSt7__cxx119to_stringEl>:
    4c25:	f3 0f 1e fa          	endbr64 
    4c29:	55                   	push   %rbp
    4c2a:	48 89 e5             	mov    %rsp,%rbp
    4c2d:	48 83 ec 20          	sub    $0x20,%rsp
    4c31:	48 89 7d e8          	mov    %rdi,-0x18(%rbp)
    4c35:	48 89 75 e0          	mov    %rsi,-0x20(%rbp)
    4c39:	64 48 8b 04 25 28 00 	mov    %fs:0x28,%rax
    4c40:	00 00 
    4c42:	48 89 45 f8          	mov    %rax,-0x8(%rbp)
    4c46:	31 c0                	xor    %eax,%eax
    4c48:	48 8b 45 e8          	mov    -0x18(%rbp),%rax
    4c4c:	48 8b 55 e0          	mov    -0x20(%rbp),%rdx
    4c50:	49 89 d0             	mov    %rdx,%r8
    4c53:	48 8d 0d af 43 00 00 	lea    0x43af(%rip),%rcx        # 9009 <_ZStL19piecewise_construct+0x1>
    4c5a:	ba 20 00 00 00       	mov    $0x20,%edx
    4c5f:	48 8b 35 6a 93 00 00 	mov    0x936a(%rip),%rsi        # dfd0 <vsnprintf@GLIBC_2.2.5>
    4c66:	48 89 c7             	mov    %rax,%rdi
    4c69:	b8 00 00 00 00       	mov    $0x0,%eax
    4c6e:	e8 fa 01 00 00       	callq  4e6d <_ZN9__gnu_cxx12__to_xstringINSt7__cxx1112basic_stringIcSt11char_traitsIcESaIcEEEcEET_PFiPT0_mPKS8_P13__va_list_tagEmSB_z>
    4c73:	48 8b 45 f8          	mov    -0x8(%rbp),%rax
    4c77:	64 48 33 04 25 28 00 	xor    %fs:0x28,%rax
    4c7e:	00 00 
    4c80:	74 05                	je     4c87 <_ZNSt7__cxx119to_stringEl+0x62>
    4c82:	e8 f9 d8 ff ff       	callq  2580 <__stack_chk_fail@plt>
    4c87:	48 8b 45 e8          	mov    -0x18(%rbp),%rax
    4c8b:	c9                   	leaveq 
    4c8c:	c3                   	retq   
    4c8d:	90                   	nop

0000000000004c8e <_ZNSt12_Vector_baseISt6vectorIiSaIiEESaIS2_EE12_Vector_implD1Ev>:
    4c8e:	f3 0f 1e fa          	endbr64 
    4c92:	55                   	push   %rbp
    4c93:	48 89 e5             	mov    %rsp,%rbp
    4c96:	48 83 ec 10          	sub    $0x10,%rsp
    4c9a:	48 89 7d f8          	mov    %rdi,-0x8(%rbp)
    4c9e:	48 8b 45 f8          	mov    -0x8(%rbp),%rax
    4ca2:	48 89 c7             	mov    %rax,%rdi
    4ca5:	e8 0c 04 00 00       	callq  50b6 <_ZNSaISt6vectorIiSaIiEEED1Ev>
    4caa:	90                   	nop
    4cab:	c9                   	leaveq 
    4cac:	c3                   	retq   
    4cad:	90                   	nop

0000000000004cae <_ZNSt12_Vector_baseISt6vectorIiSaIiEESaIS2_EEC1Ev>:
    4cae:	f3 0f 1e fa          	endbr64 
    4cb2:	55                   	push   %rbp
    4cb3:	48 89 e5             	mov    %rsp,%rbp
    4cb6:	48 83 ec 10          	sub    $0x10,%rsp
    4cba:	48 89 7d f8          	mov    %rdi,-0x8(%rbp)
    4cbe:	48 8b 45 f8          	mov    -0x8(%rbp),%rax
    4cc2:	48 89 c7             	mov    %rax,%rdi
    4cc5:	e8 c0 03 00 00       	callq  508a <_ZNSt12_Vector_baseISt6vectorIiSaIiEESaIS2_EE12_Vector_implC1Ev>
    4cca:	90                   	nop
    4ccb:	c9                   	leaveq 
    4ccc:	c3                   	retq   
    4ccd:	90                   	nop

0000000000004cce <_ZNSt6vectorIS_IiSaIiEESaIS1_EEC1Ev>:
    4cce:	f3 0f 1e fa          	endbr64 
    4cd2:	55                   	push   %rbp
    4cd3:	48 89 e5             	mov    %rsp,%rbp
    4cd6:	48 83 ec 10          	sub    $0x10,%rsp
    4cda:	48 89 7d f8          	mov    %rdi,-0x8(%rbp)
    4cde:	48 8b 45 f8          	mov    -0x8(%rbp),%rax
    4ce2:	48 89 c7             	mov    %rax,%rdi
    4ce5:	e8 c4 ff ff ff       	callq  4cae <_ZNSt12_Vector_baseISt6vectorIiSaIiEESaIS2_EEC1Ev>
    4cea:	90                   	nop
    4ceb:	c9                   	leaveq 
    4cec:	c3                   	retq   
    4ced:	90                   	nop

0000000000004cee <_ZNSt12_Vector_baseI13obstacle_dataSaIS0_EE12_Vector_implD1Ev>:
    4cee:	f3 0f 1e fa          	endbr64 
    4cf2:	55                   	push   %rbp
    4cf3:	48 89 e5             	mov    %rsp,%rbp
    4cf6:	48 83 ec 10          	sub    $0x10,%rsp
    4cfa:	48 89 7d f8          	mov    %rdi,-0x8(%rbp)
    4cfe:	48 8b 45 f8          	mov    -0x8(%rbp),%rax
    4d02:	48 89 c7             	mov    %rax,%rdi
    4d05:	e8 a2 04 00 00       	callq  51ac <_ZNSaI13obstacle_dataED1Ev>
    4d0a:	90                   	nop
    4d0b:	c9                   	leaveq 
    4d0c:	c3                   	retq   
    4d0d:	90                   	nop

0000000000004d0e <_ZNSt12_Vector_baseI13obstacle_dataSaIS0_EEC1Ev>:
    4d0e:	f3 0f 1e fa          	endbr64 
    4d12:	55                   	push   %rbp
    4d13:	48 89 e5             	mov    %rsp,%rbp
    4d16:	48 83 ec 10          	sub    $0x10,%rsp
    4d1a:	48 89 7d f8          	mov    %rdi,-0x8(%rbp)
    4d1e:	48 8b 45 f8          	mov    -0x8(%rbp),%rax
    4d22:	48 89 c7             	mov    %rax,%rdi
    4d25:	e8 56 04 00 00       	callq  5180 <_ZNSt12_Vector_baseI13obstacle_dataSaIS0_EE12_Vector_implC1Ev>
    4d2a:	90                   	nop
    4d2b:	c9                   	leaveq 
    4d2c:	c3                   	retq   
    4d2d:	90                   	nop

0000000000004d2e <_ZNSt6vectorI13obstacle_dataSaIS0_EEC1Ev>:
    4d2e:	f3 0f 1e fa          	endbr64 
    4d32:	55                   	push   %rbp
    4d33:	48 89 e5             	mov    %rsp,%rbp
    4d36:	48 83 ec 10          	sub    $0x10,%rsp
    4d3a:	48 89 7d f8          	mov    %rdi,-0x8(%rbp)
    4d3e:	48 8b 45 f8          	mov    -0x8(%rbp),%rax
    4d42:	48 89 c7             	mov    %rax,%rdi
    4d45:	e8 c4 ff ff ff       	callq  4d0e <_ZNSt12_Vector_baseI13obstacle_dataSaIS0_EEC1Ev>
    4d4a:	90                   	nop
    4d4b:	c9                   	leaveq 
    4d4c:	c3                   	retq   
    4d4d:	90                   	nop

0000000000004d4e <_ZNSt12_Vector_baseI11bomber_dataSaIS0_EE12_Vector_implD1Ev>:
    4d4e:	f3 0f 1e fa          	endbr64 
    4d52:	55                   	push   %rbp
    4d53:	48 89 e5             	mov    %rsp,%rbp
    4d56:	48 83 ec 10          	sub    $0x10,%rsp
    4d5a:	48 89 7d f8          	mov    %rdi,-0x8(%rbp)
    4d5e:	48 8b 45 f8          	mov    -0x8(%rbp),%rax
    4d62:	48 89 c7             	mov    %rax,%rdi
    4d65:	e8 38 05 00 00       	callq  52a2 <_ZNSaI11bomber_dataED1Ev>
    4d6a:	90                   	nop
    4d6b:	c9                   	leaveq 
    4d6c:	c3                   	retq   
    4d6d:	90                   	nop

0000000000004d6e <_ZNSt12_Vector_baseI11bomber_dataSaIS0_EEC1Ev>:
    4d6e:	f3 0f 1e fa          	endbr64 
    4d72:	55                   	push   %rbp
    4d73:	48 89 e5             	mov    %rsp,%rbp
    4d76:	48 83 ec 10          	sub    $0x10,%rsp
    4d7a:	48 89 7d f8          	mov    %rdi,-0x8(%rbp)
    4d7e:	48 8b 45 f8          	mov    -0x8(%rbp),%rax
    4d82:	48 89 c7             	mov    %rax,%rdi
    4d85:	e8 ec 04 00 00       	callq  5276 <_ZNSt12_Vector_baseI11bomber_dataSaIS0_EE12_Vector_implC1Ev>
    4d8a:	90                   	nop
    4d8b:	c9                   	leaveq 
    4d8c:	c3                   	retq   
    4d8d:	90                   	nop

0000000000004d8e <_ZNSt6vectorI11bomber_dataSaIS0_EEC1Ev>:
    4d8e:	f3 0f 1e fa          	endbr64 
    4d92:	55                   	push   %rbp
    4d93:	48 89 e5             	mov    %rsp,%rbp
    4d96:	48 83 ec 10          	sub    $0x10,%rsp
    4d9a:	48 89 7d f8          	mov    %rdi,-0x8(%rbp)
    4d9e:	48 8b 45 f8          	mov    -0x8(%rbp),%rax
    4da2:	48 89 c7             	mov    %rax,%rdi
    4da5:	e8 c4 ff ff ff       	callq  4d6e <_ZNSt12_Vector_baseI11bomber_dataSaIS0_EEC1Ev>
    4daa:	90                   	nop
    4dab:	c9                   	leaveq 
    4dac:	c3                   	retq   
    4dad:	90                   	nop

0000000000004dae <_ZNSt12_Vector_baseI11bomb_structSaIS0_EE12_Vector_implD1Ev>:
    4dae:	f3 0f 1e fa          	endbr64 
    4db2:	55                   	push   %rbp
    4db3:	48 89 e5             	mov    %rsp,%rbp
    4db6:	48 83 ec 10          	sub    $0x10,%rsp
    4dba:	48 89 7d f8          	mov    %rdi,-0x8(%rbp)
    4dbe:	48 8b 45 f8          	mov    -0x8(%rbp),%rax
    4dc2:	48 89 c7             	mov    %rax,%rdi
    4dc5:	e8 be 05 00 00       	callq  5388 <_ZNSaI11bomb_structED1Ev>
    4dca:	90                   	nop
    4dcb:	c9                   	leaveq 
    4dcc:	c3                   	retq   
    4dcd:	90                   	nop

0000000000004dce <_ZNSt12_Vector_baseI11bomb_structSaIS0_EEC1Ev>:
    4dce:	f3 0f 1e fa          	endbr64 
    4dd2:	55                   	push   %rbp
    4dd3:	48 89 e5             	mov    %rsp,%rbp
    4dd6:	48 83 ec 10          	sub    $0x10,%rsp
    4dda:	48 89 7d f8          	mov    %rdi,-0x8(%rbp)
    4dde:	48 8b 45 f8          	mov    -0x8(%rbp),%rax
    4de2:	48 89 c7             	mov    %rax,%rdi
    4de5:	e8 72 05 00 00       	callq  535c <_ZNSt12_Vector_baseI11bomb_structSaIS0_EE12_Vector_implC1Ev>
    4dea:	90                   	nop
    4deb:	c9                   	leaveq 
    4dec:	c3                   	retq   
    4ded:	90                   	nop

0000000000004dee <_ZNSt6vectorI11bomb_structSaIS0_EEC1Ev>:
    4dee:	f3 0f 1e fa          	endbr64 
    4df2:	55                   	push   %rbp
    4df3:	48 89 e5             	mov    %rsp,%rbp
    4df6:	48 83 ec 10          	sub    $0x10,%rsp
    4dfa:	48 89 7d f8          	mov    %rdi,-0x8(%rbp)
    4dfe:	48 8b 45 f8          	mov    -0x8(%rbp),%rax
    4e02:	48 89 c7             	mov    %rax,%rdi
    4e05:	e8 c4 ff ff ff       	callq  4dce <_ZNSt12_Vector_baseI11bomb_structSaIS0_EEC1Ev>
    4e0a:	90                   	nop
    4e0b:	c9                   	leaveq 
    4e0c:	c3                   	retq   
    4e0d:	90                   	nop

0000000000004e0e <_ZNSt12_Vector_baseIA2_iSaIS0_EE12_Vector_implD1Ev>:
    4e0e:	f3 0f 1e fa          	endbr64 
    4e12:	55                   	push   %rbp
    4e13:	48 89 e5             	mov    %rsp,%rbp
    4e16:	48 83 ec 10          	sub    $0x10,%rsp
    4e1a:	48 89 7d f8          	mov    %rdi,-0x8(%rbp)
    4e1e:	48 8b 45 f8          	mov    -0x8(%rbp),%rax
    4e22:	48 89 c7             	mov    %rax,%rdi
    4e25:	e8 54 06 00 00       	callq  547e <_ZNSaIA2_iED1Ev>
    4e2a:	90                   	nop
    4e2b:	c9                   	leaveq 
    4e2c:	c3                   	retq   
    4e2d:	90                   	nop

0000000000004e2e <_ZNSt12_Vector_baseIA2_iSaIS0_EEC1Ev>:
    4e2e:	f3 0f 1e fa          	endbr64 
    4e32:	55                   	push   %rbp
    4e33:	48 89 e5             	mov    %rsp,%rbp
    4e36:	48 83 ec 10          	sub    $0x10,%rsp
    4e3a:	48 89 7d f8          	mov    %rdi,-0x8(%rbp)
    4e3e:	48 8b 45 f8          	mov    -0x8(%rbp),%rax
    4e42:	48 89 c7             	mov    %rax,%rdi
    4e45:	e8 08 06 00 00       	callq  5452 <_ZNSt12_Vector_baseIA2_iSaIS0_EE12_Vector_implC1Ev>
    4e4a:	90                   	nop
    4e4b:	c9                   	leaveq 
    4e4c:	c3                   	retq   
    4e4d:	90                   	nop

0000000000004e4e <_ZNSt6vectorIA2_iSaIS0_EEC1Ev>:
    4e4e:	f3 0f 1e fa          	endbr64 
    4e52:	55                   	push   %rbp
    4e53:	48 89 e5             	mov    %rsp,%rbp
    4e56:	48 83 ec 10          	sub    $0x10,%rsp
    4e5a:	48 89 7d f8          	mov    %rdi,-0x8(%rbp)
    4e5e:	48 8b 45 f8          	mov    -0x8(%rbp),%rax
    4e62:	48 89 c7             	mov    %rax,%rdi
    4e65:	e8 c4 ff ff ff       	callq  4e2e <_ZNSt12_Vector_baseIA2_iSaIS0_EEC1Ev>
    4e6a:	90                   	nop
    4e6b:	c9                   	leaveq 
    4e6c:	c3                   	retq   

0000000000004e6d <_ZN9__gnu_cxx12__to_xstringINSt7__cxx1112basic_stringIcSt11char_traitsIcESaIcEEEcEET_PFiPT0_mPKS8_P13__va_list_tagEmSB_z>:
    4e6d:	f3 0f 1e fa          	endbr64 
    4e71:	55                   	push   %rbp
    4e72:	48 89 e5             	mov    %rsp,%rbp
    4e75:	53                   	push   %rbx
    4e76:	48 81 ec 08 01 00 00 	sub    $0x108,%rsp
    4e7d:	48 89 bd 08 ff ff ff 	mov    %rdi,-0xf8(%rbp)
    4e84:	48 89 b5 00 ff ff ff 	mov    %rsi,-0x100(%rbp)
    4e8b:	48 89 95 f8 fe ff ff 	mov    %rdx,-0x108(%rbp)
    4e92:	48 89 8d f0 fe ff ff 	mov    %rcx,-0x110(%rbp)
    4e99:	4c 89 85 60 ff ff ff 	mov    %r8,-0xa0(%rbp)
    4ea0:	4c 89 8d 68 ff ff ff 	mov    %r9,-0x98(%rbp)
    4ea7:	84 c0                	test   %al,%al
    4ea9:	74 23                	je     4ece <_ZN9__gnu_cxx12__to_xstringINSt7__cxx1112basic_stringIcSt11char_traitsIcESaIcEEEcEET_PFiPT0_mPKS8_P13__va_list_tagEmSB_z+0x61>
    4eab:	0f 29 85 70 ff ff ff 	movaps %xmm0,-0x90(%rbp)
    4eb2:	0f 29 4d 80          	movaps %xmm1,-0x80(%rbp)
    4eb6:	0f 29 55 90          	movaps %xmm2,-0x70(%rbp)
    4eba:	0f 29 5d a0          	movaps %xmm3,-0x60(%rbp)
    4ebe:	0f 29 65 b0          	movaps %xmm4,-0x50(%rbp)
    4ec2:	0f 29 6d c0          	movaps %xmm5,-0x40(%rbp)
    4ec6:	0f 29 75 d0          	movaps %xmm6,-0x30(%rbp)
    4eca:	0f 29 7d e0          	movaps %xmm7,-0x20(%rbp)
    4ece:	64 48 8b 04 25 28 00 	mov    %fs:0x28,%rax
    4ed5:	00 00 
    4ed7:	48 89 85 38 ff ff ff 	mov    %rax,-0xc8(%rbp)
    4ede:	31 c0                	xor    %eax,%eax
    4ee0:	48 8b 85 f8 fe ff ff 	mov    -0x108(%rbp),%rax
    4ee7:	48 8d 50 08          	lea    0x8(%rax),%rdx
    4eeb:	b8 10 00 00 00       	mov    $0x10,%eax
    4ef0:	48 83 e8 01          	sub    $0x1,%rax
    4ef4:	48 01 d0             	add    %rdx,%rax
    4ef7:	b9 10 00 00 00       	mov    $0x10,%ecx
    4efc:	ba 00 00 00 00       	mov    $0x0,%edx
    4f01:	48 f7 f1             	div    %rcx
    4f04:	48 6b c0 10          	imul   $0x10,%rax,%rax
    4f08:	48 89 c2             	mov    %rax,%rdx
    4f0b:	48 81 e2 00 f0 ff ff 	and    $0xfffffffffffff000,%rdx
    4f12:	48 89 e3             	mov    %rsp,%rbx
    4f15:	48 29 d3             	sub    %rdx,%rbx
    4f18:	48 89 da             	mov    %rbx,%rdx
    4f1b:	48 39 d4             	cmp    %rdx,%rsp
    4f1e:	74 12                	je     4f32 <_ZN9__gnu_cxx12__to_xstringINSt7__cxx1112basic_stringIcSt11char_traitsIcESaIcEEEcEET_PFiPT0_mPKS8_P13__va_list_tagEmSB_z+0xc5>
    4f20:	48 81 ec 00 10 00 00 	sub    $0x1000,%rsp
    4f27:	48 83 8c 24 f8 0f 00 	orq    $0x0,0xff8(%rsp)
    4f2e:	00 00 
    4f30:	eb e9                	jmp    4f1b <_ZN9__gnu_cxx12__to_xstringINSt7__cxx1112basic_stringIcSt11char_traitsIcESaIcEEEcEET_PFiPT0_mPKS8_P13__va_list_tagEmSB_z+0xae>
    4f32:	48 89 c2             	mov    %rax,%rdx
    4f35:	81 e2 ff 0f 00 00    	and    $0xfff,%edx
    4f3b:	48 29 d4             	sub    %rdx,%rsp
    4f3e:	48 89 c2             	mov    %rax,%rdx
    4f41:	81 e2 ff 0f 00 00    	and    $0xfff,%edx
    4f47:	48 85 d2             	test   %rdx,%rdx
    4f4a:	74 10                	je     4f5c <_ZN9__gnu_cxx12__to_xstringINSt7__cxx1112basic_stringIcSt11char_traitsIcESaIcEEEcEET_PFiPT0_mPKS8_P13__va_list_tagEmSB_z+0xef>
    4f4c:	25 ff 0f 00 00       	and    $0xfff,%eax
    4f51:	48 83 e8 08          	sub    $0x8,%rax
    4f55:	48 01 e0             	add    %rsp,%rax
    4f58:	48 83 08 00          	orq    $0x0,(%rax)
    4f5c:	48 89 e0             	mov    %rsp,%rax
    4f5f:	48 83 c0 0f          	add    $0xf,%rax
    4f63:	48 c1 e8 04          	shr    $0x4,%rax
    4f67:	48 c1 e0 04          	shl    $0x4,%rax
    4f6b:	48 89 85 18 ff ff ff 	mov    %rax,-0xe8(%rbp)
    4f72:	c7 85 20 ff ff ff 20 	movl   $0x20,-0xe0(%rbp)
    4f79:	00 00 00 
    4f7c:	c7 85 24 ff ff ff 30 	movl   $0x30,-0xdc(%rbp)
    4f83:	00 00 00 
    4f86:	48 8d 45 10          	lea    0x10(%rbp),%rax
    4f8a:	48 89 85 28 ff ff ff 	mov    %rax,-0xd8(%rbp)
    4f91:	48 8d 85 40 ff ff ff 	lea    -0xc0(%rbp),%rax
    4f98:	48 89 85 30 ff ff ff 	mov    %rax,-0xd0(%rbp)
    4f9f:	48 8d 8d 20 ff ff ff 	lea    -0xe0(%rbp),%rcx
    4fa6:	48 8b 95 f0 fe ff ff 	mov    -0x110(%rbp),%rdx
    4fad:	48 8b b5 f8 fe ff ff 	mov    -0x108(%rbp),%rsi
    4fb4:	48 8b 85 18 ff ff ff 	mov    -0xe8(%rbp),%rax
    4fbb:	4c 8b 85 00 ff ff ff 	mov    -0x100(%rbp),%r8
    4fc2:	48 89 c7             	mov    %rax,%rdi
    4fc5:	41 ff d0             	callq  *%r8
    4fc8:	89 85 14 ff ff ff    	mov    %eax,-0xec(%rbp)
    4fce:	48 8d 85 13 ff ff ff 	lea    -0xed(%rbp),%rax
    4fd5:	48 89 c7             	mov    %rax,%rdi
    4fd8:	e8 d3 d6 ff ff       	callq  26b0 <_ZNSaIcEC1Ev@plt>
    4fdd:	8b 85 14 ff ff ff    	mov    -0xec(%rbp),%eax
    4fe3:	48 63 d0             	movslq %eax,%rdx
    4fe6:	48 8b 85 18 ff ff ff 	mov    -0xe8(%rbp),%rax
    4fed:	48 8d 3c 02          	lea    (%rdx,%rax,1),%rdi
    4ff1:	48 8d 95 13 ff ff ff 	lea    -0xed(%rbp),%rdx
    4ff8:	48 8b b5 18 ff ff ff 	mov    -0xe8(%rbp),%rsi
    4fff:	48 8b 85 08 ff ff ff 	mov    -0xf8(%rbp),%rax
    5006:	48 89 d1             	mov    %rdx,%rcx
    5009:	48 89 fa             	mov    %rdi,%rdx
    500c:	48 89 c7             	mov    %rax,%rdi
    500f:	e8 bc 0a 00 00       	callq  5ad0 <_ZNSt7__cxx1112basic_stringIcSt11char_traitsIcESaIcEEC1IPcvEET_S7_RKS3_>
    5014:	48 8d 85 13 ff ff ff 	lea    -0xed(%rbp),%rax
    501b:	48 89 c7             	mov    %rax,%rdi
    501e:	e8 3d d5 ff ff       	callq  2560 <_ZNSaIcED1Ev@plt>
    5023:	48 8b 85 38 ff ff ff 	mov    -0xc8(%rbp),%rax
    502a:	64 48 33 04 25 28 00 	xor    %fs:0x28,%rax
    5031:	00 00 
    5033:	74 28                	je     505d <_ZN9__gnu_cxx12__to_xstringINSt7__cxx1112basic_stringIcSt11char_traitsIcESaIcEEEcEET_PFiPT0_mPKS8_P13__va_list_tagEmSB_z+0x1f0>
    5035:	eb 21                	jmp    5058 <_ZN9__gnu_cxx12__to_xstringINSt7__cxx1112basic_stringIcSt11char_traitsIcESaIcEEEcEET_PFiPT0_mPKS8_P13__va_list_tagEmSB_z+0x1eb>
    5037:	f3 0f 1e fa          	endbr64 
    503b:	48 89 c3             	mov    %rax,%rbx
    503e:	48 8d 85 13 ff ff ff 	lea    -0xed(%rbp),%rax
    5045:	48 89 c7             	mov    %rax,%rdi
    5048:	e8 13 d5 ff ff       	callq  2560 <_ZNSaIcED1Ev@plt>
    504d:	48 89 d8             	mov    %rbx,%rax
    5050:	48 89 c7             	mov    %rax,%rdi
    5053:	e8 48 d6 ff ff       	callq  26a0 <_Unwind_Resume@plt>
    5058:	e8 23 d5 ff ff       	callq  2580 <__stack_chk_fail@plt>
    505d:	48 8b 85 08 ff ff ff 	mov    -0xf8(%rbp),%rax
    5064:	48 8b 5d f8          	mov    -0x8(%rbp),%rbx
    5068:	c9                   	leaveq 
    5069:	c3                   	retq   

000000000000506a <_ZNSt7__cxx1112basic_stringIcSt11char_traitsIcESaIcEE12_Alloc_hiderD1Ev>:
    506a:	f3 0f 1e fa          	endbr64 
    506e:	55                   	push   %rbp
    506f:	48 89 e5             	mov    %rsp,%rbp
    5072:	48 83 ec 10          	sub    $0x10,%rsp
    5076:	48 89 7d f8          	mov    %rdi,-0x8(%rbp)
    507a:	48 8b 45 f8          	mov    -0x8(%rbp),%rax
    507e:	48 89 c7             	mov    %rax,%rdi
    5081:	e8 3a d3 ff ff       	callq  23c0 <_ZNSaIcED2Ev@plt>
    5086:	90                   	nop
    5087:	c9                   	leaveq 
    5088:	c3                   	retq   
    5089:	90                   	nop

000000000000508a <_ZNSt12_Vector_baseISt6vectorIiSaIiEESaIS2_EE12_Vector_implC1Ev>:
    508a:	f3 0f 1e fa          	endbr64 
    508e:	55                   	push   %rbp
    508f:	48 89 e5             	mov    %rsp,%rbp
    5092:	48 83 ec 10          	sub    $0x10,%rsp
    5096:	48 89 7d f8          	mov    %rdi,-0x8(%rbp)
    509a:	48 8b 45 f8          	mov    -0x8(%rbp),%rax
    509e:	48 89 c7             	mov    %rax,%rdi
    50a1:	e8 aa 0a 00 00       	callq  5b50 <_ZNSaISt6vectorIiSaIiEEEC1Ev>
    50a6:	48 8b 45 f8          	mov    -0x8(%rbp),%rax
    50aa:	48 89 c7             	mov    %rax,%rdi
    50ad:	e8 be 0a 00 00       	callq  5b70 <_ZNSt12_Vector_baseISt6vectorIiSaIiEESaIS2_EE17_Vector_impl_dataC1Ev>
    50b2:	90                   	nop
    50b3:	c9                   	leaveq 
    50b4:	c3                   	retq   
    50b5:	90                   	nop

00000000000050b6 <_ZNSaISt6vectorIiSaIiEEED1Ev>:
    50b6:	f3 0f 1e fa          	endbr64 
    50ba:	55                   	push   %rbp
    50bb:	48 89 e5             	mov    %rsp,%rbp
    50be:	48 83 ec 10          	sub    $0x10,%rsp
    50c2:	48 89 7d f8          	mov    %rdi,-0x8(%rbp)
    50c6:	48 8b 45 f8          	mov    -0x8(%rbp),%rax
    50ca:	48 89 c7             	mov    %rax,%rdi
    50cd:	e8 d0 0a 00 00       	callq  5ba2 <_ZN9__gnu_cxx13new_allocatorISt6vectorIiSaIiEEED1Ev>
    50d2:	90                   	nop
    50d3:	c9                   	leaveq 
    50d4:	c3                   	retq   
    50d5:	90                   	nop

00000000000050d6 <_ZNSt12_Vector_baseISt6vectorIiSaIiEESaIS2_EED1Ev>:
    50d6:	f3 0f 1e fa          	endbr64 
    50da:	55                   	push   %rbp
    50db:	48 89 e5             	mov    %rsp,%rbp
    50de:	48 83 ec 10          	sub    $0x10,%rsp
    50e2:	48 89 7d f8          	mov    %rdi,-0x8(%rbp)
    50e6:	48 8b 45 f8          	mov    -0x8(%rbp),%rax
    50ea:	48 8b 50 10          	mov    0x10(%rax),%rdx
    50ee:	48 8b 45 f8          	mov    -0x8(%rbp),%rax
    50f2:	48 8b 00             	mov    (%rax),%rax
    50f5:	48 29 c2             	sub    %rax,%rdx
    50f8:	48 89 d0             	mov    %rdx,%rax
    50fb:	48 c1 f8 03          	sar    $0x3,%rax
    50ff:	48 89 c2             	mov    %rax,%rdx
    5102:	48 b8 ab aa aa aa aa 	movabs $0xaaaaaaaaaaaaaaab,%rax
    5109:	aa aa aa 
    510c:	48 0f af c2          	imul   %rdx,%rax
    5110:	48 89 c2             	mov    %rax,%rdx
    5113:	48 8b 45 f8          	mov    -0x8(%rbp),%rax
    5117:	48 8b 08             	mov    (%rax),%rcx
    511a:	48 8b 45 f8          	mov    -0x8(%rbp),%rax
    511e:	48 89 ce             	mov    %rcx,%rsi
    5121:	48 89 c7             	mov    %rax,%rdi
    5124:	e8 89 0a 00 00       	callq  5bb2 <_ZNSt12_Vector_baseISt6vectorIiSaIiEESaIS2_EE13_M_deallocateEPS2_m>
    5129:	48 8b 45 f8          	mov    -0x8(%rbp),%rax
    512d:	48 89 c7             	mov    %rax,%rdi
    5130:	e8 59 fb ff ff       	callq  4c8e <_ZNSt12_Vector_baseISt6vectorIiSaIiEESaIS2_EE12_Vector_implD1Ev>
    5135:	90                   	nop
    5136:	c9                   	leaveq 
    5137:	c3                   	retq   

0000000000005138 <_ZNSt6vectorIS_IiSaIiEESaIS1_EED1Ev>:
    5138:	f3 0f 1e fa          	endbr64 
    513c:	55                   	push   %rbp
    513d:	48 89 e5             	mov    %rsp,%rbp
    5140:	48 83 ec 10          	sub    $0x10,%rsp
    5144:	48 89 7d f8          	mov    %rdi,-0x8(%rbp)
    5148:	48 8b 45 f8          	mov    -0x8(%rbp),%rax
    514c:	48 89 c7             	mov    %rax,%rdi
    514f:	e8 98 0a 00 00       	callq  5bec <_ZNSt12_Vector_baseISt6vectorIiSaIiEESaIS2_EE19_M_get_Tp_allocatorEv>
    5154:	48 89 c2             	mov    %rax,%rdx
    5157:	48 8b 45 f8          	mov    -0x8(%rbp),%rax
    515b:	48 8b 48 08          	mov    0x8(%rax),%rcx
    515f:	48 8b 45 f8          	mov    -0x8(%rbp),%rax
    5163:	48 8b 00             	mov    (%rax),%rax
    5166:	48 89 ce             	mov    %rcx,%rsi
    5169:	48 89 c7             	mov    %rax,%rdi
    516c:	e8 8d 0a 00 00       	callq  5bfe <_ZSt8_DestroyIPSt6vectorIiSaIiEES2_EvT_S4_RSaIT0_E>
    5171:	48 8b 45 f8          	mov    -0x8(%rbp),%rax
    5175:	48 89 c7             	mov    %rax,%rdi
    5178:	e8 59 ff ff ff       	callq  50d6 <_ZNSt12_Vector_baseISt6vectorIiSaIiEESaIS2_EED1Ev>
    517d:	90                   	nop
    517e:	c9                   	leaveq 
    517f:	c3                   	retq   

0000000000005180 <_ZNSt12_Vector_baseI13obstacle_dataSaIS0_EE12_Vector_implC1Ev>:
    5180:	f3 0f 1e fa          	endbr64 
    5184:	55                   	push   %rbp
    5185:	48 89 e5             	mov    %rsp,%rbp
    5188:	48 83 ec 10          	sub    $0x10,%rsp
    518c:	48 89 7d f8          	mov    %rdi,-0x8(%rbp)
    5190:	48 8b 45 f8          	mov    -0x8(%rbp),%rax
    5194:	48 89 c7             	mov    %rax,%rdi
    5197:	e8 90 0a 00 00       	callq  5c2c <_ZNSaI13obstacle_dataEC1Ev>
    519c:	48 8b 45 f8          	mov    -0x8(%rbp),%rax
    51a0:	48 89 c7             	mov    %rax,%rdi
    51a3:	e8 a4 0a 00 00       	callq  5c4c <_ZNSt12_Vector_baseI13obstacle_dataSaIS0_EE17_Vector_impl_dataC1Ev>
    51a8:	90                   	nop
    51a9:	c9                   	leaveq 
    51aa:	c3                   	retq   
    51ab:	90                   	nop

00000000000051ac <_ZNSaI13obstacle_dataED1Ev>:
    51ac:	f3 0f 1e fa          	endbr64 
    51b0:	55                   	push   %rbp
    51b1:	48 89 e5             	mov    %rsp,%rbp
    51b4:	48 83 ec 10          	sub    $0x10,%rsp
    51b8:	48 89 7d f8          	mov    %rdi,-0x8(%rbp)
    51bc:	48 8b 45 f8          	mov    -0x8(%rbp),%rax
    51c0:	48 89 c7             	mov    %rax,%rdi
    51c3:	e8 b6 0a 00 00       	callq  5c7e <_ZN9__gnu_cxx13new_allocatorI13obstacle_dataED1Ev>
    51c8:	90                   	nop
    51c9:	c9                   	leaveq 
    51ca:	c3                   	retq   
    51cb:	90                   	nop

00000000000051cc <_ZNSt12_Vector_baseI13obstacle_dataSaIS0_EED1Ev>:
    51cc:	f3 0f 1e fa          	endbr64 
    51d0:	55                   	push   %rbp
    51d1:	48 89 e5             	mov    %rsp,%rbp
    51d4:	48 83 ec 10          	sub    $0x10,%rsp
    51d8:	48 89 7d f8          	mov    %rdi,-0x8(%rbp)
    51dc:	48 8b 45 f8          	mov    -0x8(%rbp),%rax
    51e0:	48 8b 50 10          	mov    0x10(%rax),%rdx
    51e4:	48 8b 45 f8          	mov    -0x8(%rbp),%rax
    51e8:	48 8b 00             	mov    (%rax),%rax
    51eb:	48 29 c2             	sub    %rax,%rdx
    51ee:	48 89 d0             	mov    %rdx,%rax
    51f1:	48 c1 f8 02          	sar    $0x2,%rax
    51f5:	48 89 c2             	mov    %rax,%rdx
    51f8:	48 b8 ab aa aa aa aa 	movabs $0xaaaaaaaaaaaaaaab,%rax
    51ff:	aa aa aa 
    5202:	48 0f af c2          	imul   %rdx,%rax
    5206:	48 89 c2             	mov    %rax,%rdx
    5209:	48 8b 45 f8          	mov    -0x8(%rbp),%rax
    520d:	48 8b 08             	mov    (%rax),%rcx
    5210:	48 8b 45 f8          	mov    -0x8(%rbp),%rax
    5214:	48 89 ce             	mov    %rcx,%rsi
    5217:	48 89 c7             	mov    %rax,%rdi
    521a:	e8 6f 0a 00 00       	callq  5c8e <_ZNSt12_Vector_baseI13obstacle_dataSaIS0_EE13_M_deallocateEPS0_m>
    521f:	48 8b 45 f8          	mov    -0x8(%rbp),%rax
    5223:	48 89 c7             	mov    %rax,%rdi
    5226:	e8 c3 fa ff ff       	callq  4cee <_ZNSt12_Vector_baseI13obstacle_dataSaIS0_EE12_Vector_implD1Ev>
    522b:	90                   	nop
    522c:	c9                   	leaveq 
    522d:	c3                   	retq   

000000000000522e <_ZNSt6vectorI13obstacle_dataSaIS0_EED1Ev>:
    522e:	f3 0f 1e fa          	endbr64 
    5232:	55                   	push   %rbp
    5233:	48 89 e5             	mov    %rsp,%rbp
    5236:	48 83 ec 10          	sub    $0x10,%rsp
    523a:	48 89 7d f8          	mov    %rdi,-0x8(%rbp)
    523e:	48 8b 45 f8          	mov    -0x8(%rbp),%rax
    5242:	48 89 c7             	mov    %rax,%rdi
    5245:	e8 7e 0a 00 00       	callq  5cc8 <_ZNSt12_Vector_baseI13obstacle_dataSaIS0_EE19_M_get_Tp_allocatorEv>
    524a:	48 89 c2             	mov    %rax,%rdx
    524d:	48 8b 45 f8          	mov    -0x8(%rbp),%rax
    5251:	48 8b 48 08          	mov    0x8(%rax),%rcx
    5255:	48 8b 45 f8          	mov    -0x8(%rbp),%rax
    5259:	48 8b 00             	mov    (%rax),%rax
    525c:	48 89 ce             	mov    %rcx,%rsi
    525f:	48 89 c7             	mov    %rax,%rdi
    5262:	e8 73 0a 00 00       	callq  5cda <_ZSt8_DestroyIP13obstacle_dataS0_EvT_S2_RSaIT0_E>
    5267:	48 8b 45 f8          	mov    -0x8(%rbp),%rax
    526b:	48 89 c7             	mov    %rax,%rdi
    526e:	e8 59 ff ff ff       	callq  51cc <_ZNSt12_Vector_baseI13obstacle_dataSaIS0_EED1Ev>
    5273:	90                   	nop
    5274:	c9                   	leaveq 
    5275:	c3                   	retq   

0000000000005276 <_ZNSt12_Vector_baseI11bomber_dataSaIS0_EE12_Vector_implC1Ev>:
    5276:	f3 0f 1e fa          	endbr64 
    527a:	55                   	push   %rbp
    527b:	48 89 e5             	mov    %rsp,%rbp
    527e:	48 83 ec 10          	sub    $0x10,%rsp
    5282:	48 89 7d f8          	mov    %rdi,-0x8(%rbp)
    5286:	48 8b 45 f8          	mov    -0x8(%rbp),%rax
    528a:	48 89 c7             	mov    %rax,%rdi
    528d:	e8 76 0a 00 00       	callq  5d08 <_ZNSaI11bomber_dataEC1Ev>
    5292:	48 8b 45 f8          	mov    -0x8(%rbp),%rax
    5296:	48 89 c7             	mov    %rax,%rdi
    5299:	e8 8a 0a 00 00       	callq  5d28 <_ZNSt12_Vector_baseI11bomber_dataSaIS0_EE17_Vector_impl_dataC1Ev>
    529e:	90                   	nop
    529f:	c9                   	leaveq 
    52a0:	c3                   	retq   
    52a1:	90                   	nop

00000000000052a2 <_ZNSaI11bomber_dataED1Ev>:
    52a2:	f3 0f 1e fa          	endbr64 
    52a6:	55                   	push   %rbp
    52a7:	48 89 e5             	mov    %rsp,%rbp
    52aa:	48 83 ec 10          	sub    $0x10,%rsp
    52ae:	48 89 7d f8          	mov    %rdi,-0x8(%rbp)
    52b2:	48 8b 45 f8          	mov    -0x8(%rbp),%rax
    52b6:	48 89 c7             	mov    %rax,%rdi
    52b9:	e8 9c 0a 00 00       	callq  5d5a <_ZN9__gnu_cxx13new_allocatorI11bomber_dataED1Ev>
    52be:	90                   	nop
    52bf:	c9                   	leaveq 
    52c0:	c3                   	retq   
    52c1:	90                   	nop

00000000000052c2 <_ZNSt12_Vector_baseI11bomber_dataSaIS0_EED1Ev>:
    52c2:	f3 0f 1e fa          	endbr64 
    52c6:	55                   	push   %rbp
    52c7:	48 89 e5             	mov    %rsp,%rbp
    52ca:	48 83 ec 10          	sub    $0x10,%rsp
    52ce:	48 89 7d f8          	mov    %rdi,-0x8(%rbp)
    52d2:	48 8b 45 f8          	mov    -0x8(%rbp),%rax
    52d6:	48 8b 50 10          	mov    0x10(%rax),%rdx
    52da:	48 8b 45 f8          	mov    -0x8(%rbp),%rax
    52de:	48 8b 00             	mov    (%rax),%rax
    52e1:	48 29 c2             	sub    %rax,%rdx
    52e4:	48 89 d0             	mov    %rdx,%rax
    52e7:	48 c1 f8 05          	sar    $0x5,%rax
    52eb:	48 89 c2             	mov    %rax,%rdx
    52ee:	48 8b 45 f8          	mov    -0x8(%rbp),%rax
    52f2:	48 8b 08             	mov    (%rax),%rcx
    52f5:	48 8b 45 f8          	mov    -0x8(%rbp),%rax
    52f9:	48 89 ce             	mov    %rcx,%rsi
    52fc:	48 89 c7             	mov    %rax,%rdi
    52ff:	e8 66 0a 00 00       	callq  5d6a <_ZNSt12_Vector_baseI11bomber_dataSaIS0_EE13_M_deallocateEPS0_m>
    5304:	48 8b 45 f8          	mov    -0x8(%rbp),%rax
    5308:	48 89 c7             	mov    %rax,%rdi
    530b:	e8 3e fa ff ff       	callq  4d4e <_ZNSt12_Vector_baseI11bomber_dataSaIS0_EE12_Vector_implD1Ev>
    5310:	90                   	nop
    5311:	c9                   	leaveq 
    5312:	c3                   	retq   
    5313:	90                   	nop

0000000000005314 <_ZNSt6vectorI11bomber_dataSaIS0_EED1Ev>:
    5314:	f3 0f 1e fa          	endbr64 
    5318:	55                   	push   %rbp
    5319:	48 89 e5             	mov    %rsp,%rbp
    531c:	48 83 ec 10          	sub    $0x10,%rsp
    5320:	48 89 7d f8          	mov    %rdi,-0x8(%rbp)
    5324:	48 8b 45 f8          	mov    -0x8(%rbp),%rax
    5328:	48 89 c7             	mov    %rax,%rdi
    532b:	e8 74 0a 00 00       	callq  5da4 <_ZNSt12_Vector_baseI11bomber_dataSaIS0_EE19_M_get_Tp_allocatorEv>
    5330:	48 89 c2             	mov    %rax,%rdx
    5333:	48 8b 45 f8          	mov    -0x8(%rbp),%rax
    5337:	48 8b 48 08          	mov    0x8(%rax),%rcx
    533b:	48 8b 45 f8          	mov    -0x8(%rbp),%rax
    533f:	48 8b 00             	mov    (%rax),%rax
    5342:	48 89 ce             	mov    %rcx,%rsi
    5345:	48 89 c7             	mov    %rax,%rdi
    5348:	e8 69 0a 00 00       	callq  5db6 <_ZSt8_DestroyIP11bomber_dataS0_EvT_S2_RSaIT0_E>
    534d:	48 8b 45 f8          	mov    -0x8(%rbp),%rax
    5351:	48 89 c7             	mov    %rax,%rdi
    5354:	e8 69 ff ff ff       	callq  52c2 <_ZNSt12_Vector_baseI11bomber_dataSaIS0_EED1Ev>
    5359:	90                   	nop
    535a:	c9                   	leaveq 
    535b:	c3                   	retq   

000000000000535c <_ZNSt12_Vector_baseI11bomb_structSaIS0_EE12_Vector_implC1Ev>:
    535c:	f3 0f 1e fa          	endbr64 
    5360:	55                   	push   %rbp
    5361:	48 89 e5             	mov    %rsp,%rbp
    5364:	48 83 ec 10          	sub    $0x10,%rsp
    5368:	48 89 7d f8          	mov    %rdi,-0x8(%rbp)
    536c:	48 8b 45 f8          	mov    -0x8(%rbp),%rax
    5370:	48 89 c7             	mov    %rax,%rdi
    5373:	e8 6c 0a 00 00       	callq  5de4 <_ZNSaI11bomb_structEC1Ev>
    5378:	48 8b 45 f8          	mov    -0x8(%rbp),%rax
    537c:	48 89 c7             	mov    %rax,%rdi
    537f:	e8 80 0a 00 00       	callq  5e04 <_ZNSt12_Vector_baseI11bomb_structSaIS0_EE17_Vector_impl_dataC1Ev>
    5384:	90                   	nop
    5385:	c9                   	leaveq 
    5386:	c3                   	retq   
    5387:	90                   	nop

0000000000005388 <_ZNSaI11bomb_structED1Ev>:
    5388:	f3 0f 1e fa          	endbr64 
    538c:	55                   	push   %rbp
    538d:	48 89 e5             	mov    %rsp,%rbp
    5390:	48 83 ec 10          	sub    $0x10,%rsp
    5394:	48 89 7d f8          	mov    %rdi,-0x8(%rbp)
    5398:	48 8b 45 f8          	mov    -0x8(%rbp),%rax
    539c:	48 89 c7             	mov    %rax,%rdi
    539f:	e8 92 0a 00 00       	callq  5e36 <_ZN9__gnu_cxx13new_allocatorI11bomb_structED1Ev>
    53a4:	90                   	nop
    53a5:	c9                   	leaveq 
    53a6:	c3                   	retq   
    53a7:	90                   	nop

00000000000053a8 <_ZNSt12_Vector_baseI11bomb_structSaIS0_EED1Ev>:
    53a8:	f3 0f 1e fa          	endbr64 
    53ac:	55                   	push   %rbp
    53ad:	48 89 e5             	mov    %rsp,%rbp
    53b0:	48 83 ec 10          	sub    $0x10,%rsp
    53b4:	48 89 7d f8          	mov    %rdi,-0x8(%rbp)
    53b8:	48 8b 45 f8          	mov    -0x8(%rbp),%rax
    53bc:	48 8b 50 10          	mov    0x10(%rax),%rdx
    53c0:	48 8b 45 f8          	mov    -0x8(%rbp),%rax
    53c4:	48 8b 00             	mov    (%rax),%rax
    53c7:	48 29 c2             	sub    %rax,%rdx
    53ca:	48 89 d0             	mov    %rdx,%rax
    53cd:	48 c1 f8 03          	sar    $0x3,%rax
    53d1:	48 89 c2             	mov    %rax,%rdx
    53d4:	48 b8 cd cc cc cc cc 	movabs $0xcccccccccccccccd,%rax
    53db:	cc cc cc 
    53de:	48 0f af c2          	imul   %rdx,%rax
    53e2:	48 89 c2             	mov    %rax,%rdx
    53e5:	48 8b 45 f8          	mov    -0x8(%rbp),%rax
    53e9:	48 8b 08             	mov    (%rax),%rcx
    53ec:	48 8b 45 f8          	mov    -0x8(%rbp),%rax
    53f0:	48 89 ce             	mov    %rcx,%rsi
    53f3:	48 89 c7             	mov    %rax,%rdi
    53f6:	e8 4b 0a 00 00       	callq  5e46 <_ZNSt12_Vector_baseI11bomb_structSaIS0_EE13_M_deallocateEPS0_m>
    53fb:	48 8b 45 f8          	mov    -0x8(%rbp),%rax
    53ff:	48 89 c7             	mov    %rax,%rdi
    5402:	e8 a7 f9 ff ff       	callq  4dae <_ZNSt12_Vector_baseI11bomb_structSaIS0_EE12_Vector_implD1Ev>
    5407:	90                   	nop
    5408:	c9                   	leaveq 
    5409:	c3                   	retq   

000000000000540a <_ZNSt6vectorI11bomb_structSaIS0_EED1Ev>:
    540a:	f3 0f 1e fa          	endbr64 
    540e:	55                   	push   %rbp
    540f:	48 89 e5             	mov    %rsp,%rbp
    5412:	48 83 ec 10          	sub    $0x10,%rsp
    5416:	48 89 7d f8          	mov    %rdi,-0x8(%rbp)
    541a:	48 8b 45 f8          	mov    -0x8(%rbp),%rax
    541e:	48 89 c7             	mov    %rax,%rdi
    5421:	e8 5a 0a 00 00       	callq  5e80 <_ZNSt12_Vector_baseI11bomb_structSaIS0_EE19_M_get_Tp_allocatorEv>
    5426:	48 89 c2             	mov    %rax,%rdx
    5429:	48 8b 45 f8          	mov    -0x8(%rbp),%rax
    542d:	48 8b 48 08          	mov    0x8(%rax),%rcx
    5431:	48 8b 45 f8          	mov    -0x8(%rbp),%rax
    5435:	48 8b 00             	mov    (%rax),%rax
    5438:	48 89 ce             	mov    %rcx,%rsi
    543b:	48 89 c7             	mov    %rax,%rdi
    543e:	e8 4f 0a 00 00       	callq  5e92 <_ZSt8_DestroyIP11bomb_structS0_EvT_S2_RSaIT0_E>
    5443:	48 8b 45 f8          	mov    -0x8(%rbp),%rax
    5447:	48 89 c7             	mov    %rax,%rdi
    544a:	e8 59 ff ff ff       	callq  53a8 <_ZNSt12_Vector_baseI11bomb_structSaIS0_EED1Ev>
    544f:	90                   	nop
    5450:	c9                   	leaveq 
    5451:	c3                   	retq   

0000000000005452 <_ZNSt12_Vector_baseIA2_iSaIS0_EE12_Vector_implC1Ev>:
    5452:	f3 0f 1e fa          	endbr64 
    5456:	55                   	push   %rbp
    5457:	48 89 e5             	mov    %rsp,%rbp
    545a:	48 83 ec 10          	sub    $0x10,%rsp
    545e:	48 89 7d f8          	mov    %rdi,-0x8(%rbp)
    5462:	48 8b 45 f8          	mov    -0x8(%rbp),%rax
    5466:	48 89 c7             	mov    %rax,%rdi
    5469:	e8 52 0a 00 00       	callq  5ec0 <_ZNSaIA2_iEC1Ev>
    546e:	48 8b 45 f8          	mov    -0x8(%rbp),%rax
    5472:	48 89 c7             	mov    %rax,%rdi
    5475:	e8 66 0a 00 00       	callq  5ee0 <_ZNSt12_Vector_baseIA2_iSaIS0_EE17_Vector_impl_dataC1Ev>
    547a:	90                   	nop
    547b:	c9                   	leaveq 
    547c:	c3                   	retq   
    547d:	90                   	nop

000000000000547e <_ZNSaIA2_iED1Ev>:
    547e:	f3 0f 1e fa          	endbr64 
    5482:	55                   	push   %rbp
    5483:	48 89 e5             	mov    %rsp,%rbp
    5486:	48 83 ec 10          	sub    $0x10,%rsp
    548a:	48 89 7d f8          	mov    %rdi,-0x8(%rbp)
    548e:	48 8b 45 f8          	mov    -0x8(%rbp),%rax
    5492:	48 89 c7             	mov    %rax,%rdi
    5495:	e8 78 0a 00 00       	callq  5f12 <_ZN9__gnu_cxx13new_allocatorIA2_iED1Ev>
    549a:	90                   	nop
    549b:	c9                   	leaveq 
    549c:	c3                   	retq   
    549d:	90                   	nop

000000000000549e <_ZNSt12_Vector_baseIA2_iSaIS0_EED1Ev>:
    549e:	f3 0f 1e fa          	endbr64 
    54a2:	55                   	push   %rbp
    54a3:	48 89 e5             	mov    %rsp,%rbp
    54a6:	48 83 ec 10          	sub    $0x10,%rsp
    54aa:	48 89 7d f8          	mov    %rdi,-0x8(%rbp)
    54ae:	48 8b 45 f8          	mov    -0x8(%rbp),%rax
    54b2:	48 8b 50 10          	mov    0x10(%rax),%rdx
    54b6:	48 8b 45 f8          	mov    -0x8(%rbp),%rax
    54ba:	48 8b 00             	mov    (%rax),%rax
    54bd:	48 29 c2             	sub    %rax,%rdx
    54c0:	48 89 d0             	mov    %rdx,%rax
    54c3:	48 c1 f8 03          	sar    $0x3,%rax
    54c7:	48 89 c2             	mov    %rax,%rdx
    54ca:	48 8b 45 f8          	mov    -0x8(%rbp),%rax
    54ce:	48 8b 08             	mov    (%rax),%rcx
    54d1:	48 8b 45 f8          	mov    -0x8(%rbp),%rax
    54d5:	48 89 ce             	mov    %rcx,%rsi
    54d8:	48 89 c7             	mov    %rax,%rdi
    54db:	e8 42 0a 00 00       	callq  5f22 <_ZNSt12_Vector_baseIA2_iSaIS0_EE13_M_deallocateEPS0_m>
    54e0:	48 8b 45 f8          	mov    -0x8(%rbp),%rax
    54e4:	48 89 c7             	mov    %rax,%rdi
    54e7:	e8 22 f9 ff ff       	callq  4e0e <_ZNSt12_Vector_baseIA2_iSaIS0_EE12_Vector_implD1Ev>
    54ec:	90                   	nop
    54ed:	c9                   	leaveq 
    54ee:	c3                   	retq   
    54ef:	90                   	nop

00000000000054f0 <_ZNSt6vectorIA2_iSaIS0_EED1Ev>:
    54f0:	f3 0f 1e fa          	endbr64 
    54f4:	55                   	push   %rbp
    54f5:	48 89 e5             	mov    %rsp,%rbp
    54f8:	48 83 ec 10          	sub    $0x10,%rsp
    54fc:	48 89 7d f8          	mov    %rdi,-0x8(%rbp)
    5500:	48 8b 45 f8          	mov    -0x8(%rbp),%rax
    5504:	48 89 c7             	mov    %rax,%rdi
    5507:	e8 50 0a 00 00       	callq  5f5c <_ZNSt12_Vector_baseIA2_iSaIS0_EE19_M_get_Tp_allocatorEv>
    550c:	48 89 c2             	mov    %rax,%rdx
    550f:	48 8b 45 f8          	mov    -0x8(%rbp),%rax
    5513:	48 8b 48 08          	mov    0x8(%rax),%rcx
    5517:	48 8b 45 f8          	mov    -0x8(%rbp),%rax
    551b:	48 8b 00             	mov    (%rax),%rax
    551e:	48 89 ce             	mov    %rcx,%rsi
    5521:	48 89 c7             	mov    %rax,%rdi
    5524:	e8 45 0a 00 00       	callq  5f6e <_ZSt8_DestroyIPA2_iS0_EvT_S2_RSaIT0_E>
    5529:	48 8b 45 f8          	mov    -0x8(%rbp),%rax
    552d:	48 89 c7             	mov    %rax,%rdi
    5530:	e8 69 ff ff ff       	callq  549e <_ZNSt12_Vector_baseIA2_iSaIS0_EED1Ev>
    5535:	90                   	nop
    5536:	c9                   	leaveq 
    5537:	c3                   	retq   

0000000000005538 <_ZNSt6vectorI11bomber_dataSaIS0_EE9push_backERKS0_>:
    5538:	f3 0f 1e fa          	endbr64 
    553c:	55                   	push   %rbp
    553d:	48 89 e5             	mov    %rsp,%rbp
    5540:	48 83 ec 10          	sub    $0x10,%rsp
    5544:	48 89 7d f8          	mov    %rdi,-0x8(%rbp)
    5548:	48 89 75 f0          	mov    %rsi,-0x10(%rbp)
    554c:	48 8b 45 f8          	mov    -0x8(%rbp),%rax
    5550:	48 8b 50 08          	mov    0x8(%rax),%rdx
    5554:	48 8b 45 f8          	mov    -0x8(%rbp),%rax
    5558:	48 8b 40 10          	mov    0x10(%rax),%rax
    555c:	48 39 c2             	cmp    %rax,%rdx
    555f:	74 31                	je     5592 <_ZNSt6vectorI11bomber_dataSaIS0_EE9push_backERKS0_+0x5a>
    5561:	48 8b 45 f8          	mov    -0x8(%rbp),%rax
    5565:	48 8b 48 08          	mov    0x8(%rax),%rcx
    5569:	48 8b 45 f8          	mov    -0x8(%rbp),%rax
    556d:	48 8b 55 f0          	mov    -0x10(%rbp),%rdx
    5571:	48 89 ce             	mov    %rcx,%rsi
    5574:	48 89 c7             	mov    %rax,%rdi
    5577:	e8 20 0a 00 00       	callq  5f9c <_ZNSt16allocator_traitsISaI11bomber_dataEE9constructIS0_JRKS0_EEEvRS1_PT_DpOT0_>
    557c:	48 8b 45 f8          	mov    -0x8(%rbp),%rax
    5580:	48 8b 40 08          	mov    0x8(%rax),%rax
    5584:	48 8d 50 20          	lea    0x20(%rax),%rdx
    5588:	48 8b 45 f8          	mov    -0x8(%rbp),%rax
    558c:	48 89 50 08          	mov    %rdx,0x8(%rax)
    5590:	eb 22                	jmp    55b4 <_ZNSt6vectorI11bomber_dataSaIS0_EE9push_backERKS0_+0x7c>
    5592:	48 8b 45 f8          	mov    -0x8(%rbp),%rax
    5596:	48 89 c7             	mov    %rax,%rdi
    5599:	e8 e2 02 00 00       	callq  5880 <_ZNSt6vectorI11bomber_dataSaIS0_EE3endEv>
    559e:	48 89 c1             	mov    %rax,%rcx
    55a1:	48 8b 55 f0          	mov    -0x10(%rbp),%rdx
    55a5:	48 8b 45 f8          	mov    -0x8(%rbp),%rax
    55a9:	48 89 ce             	mov    %rcx,%rsi
    55ac:	48 89 c7             	mov    %rax,%rdi
    55af:	e8 6a 0a 00 00       	callq  601e <_ZNSt6vectorI11bomber_dataSaIS0_EE17_M_realloc_insertIJRKS0_EEEvN9__gnu_cxx17__normal_iteratorIPS0_S2_EEDpOT_>
    55b4:	90                   	nop
    55b5:	c9                   	leaveq 
    55b6:	c3                   	retq   
    55b7:	90                   	nop

00000000000055b8 <_ZNKSt6vectorI11bomber_dataSaIS0_EE4sizeEv>:
    55b8:	f3 0f 1e fa          	endbr64 
    55bc:	55                   	push   %rbp
    55bd:	48 89 e5             	mov    %rsp,%rbp
    55c0:	48 89 7d f8          	mov    %rdi,-0x8(%rbp)
    55c4:	48 8b 45 f8          	mov    -0x8(%rbp),%rax
    55c8:	48 8b 50 08          	mov    0x8(%rax),%rdx
    55cc:	48 8b 45 f8          	mov    -0x8(%rbp),%rax
    55d0:	48 8b 00             	mov    (%rax),%rax
    55d3:	48 29 c2             	sub    %rax,%rdx
    55d6:	48 89 d0             	mov    %rdx,%rax
    55d9:	48 c1 f8 05          	sar    $0x5,%rax
    55dd:	5d                   	pop    %rbp
    55de:	c3                   	retq   
    55df:	90                   	nop

00000000000055e0 <_ZNKSt6vectorI11bomb_structSaIS0_EE4sizeEv>:
    55e0:	f3 0f 1e fa          	endbr64 
    55e4:	55                   	push   %rbp
    55e5:	48 89 e5             	mov    %rsp,%rbp
    55e8:	48 89 7d f8          	mov    %rdi,-0x8(%rbp)
    55ec:	48 8b 45 f8          	mov    -0x8(%rbp),%rax
    55f0:	48 8b 50 08          	mov    0x8(%rax),%rdx
    55f4:	48 8b 45 f8          	mov    -0x8(%rbp),%rax
    55f8:	48 8b 00             	mov    (%rax),%rax
    55fb:	48 29 c2             	sub    %rax,%rdx
    55fe:	48 89 d0             	mov    %rdx,%rax
    5601:	48 c1 f8 03          	sar    $0x3,%rax
    5605:	48 89 c2             	mov    %rax,%rdx
    5608:	48 b8 cd cc cc cc cc 	movabs $0xcccccccccccccccd,%rax
    560f:	cc cc cc 
    5612:	48 0f af c2          	imul   %rdx,%rax
    5616:	5d                   	pop    %rbp
    5617:	c3                   	retq   

0000000000005618 <_ZNSt6vectorI11bomb_structSaIS0_EE5beginEv>:
    5618:	f3 0f 1e fa          	endbr64 
    561c:	55                   	push   %rbp
    561d:	48 89 e5             	mov    %rsp,%rbp
    5620:	48 83 ec 20          	sub    $0x20,%rsp
    5624:	48 89 7d e8          	mov    %rdi,-0x18(%rbp)
    5628:	64 48 8b 04 25 28 00 	mov    %fs:0x28,%rax
    562f:	00 00 
    5631:	48 89 45 f8          	mov    %rax,-0x8(%rbp)
    5635:	31 c0                	xor    %eax,%eax
    5637:	48 8b 55 e8          	mov    -0x18(%rbp),%rdx
    563b:	48 8d 45 f0          	lea    -0x10(%rbp),%rax
    563f:	48 89 d6             	mov    %rdx,%rsi
    5642:	48 89 c7             	mov    %rax,%rdi
    5645:	e8 c8 0c 00 00       	callq  6312 <_ZN9__gnu_cxx17__normal_iteratorIP11bomb_structSt6vectorIS1_SaIS1_EEEC1ERKS2_>
    564a:	48 8b 45 f0          	mov    -0x10(%rbp),%rax
    564e:	48 8b 4d f8          	mov    -0x8(%rbp),%rcx
    5652:	64 48 33 0c 25 28 00 	xor    %fs:0x28,%rcx
    5659:	00 00 
    565b:	74 05                	je     5662 <_ZNSt6vectorI11bomb_structSaIS0_EE5beginEv+0x4a>
    565d:	e8 1e cf ff ff       	callq  2580 <__stack_chk_fail@plt>
    5662:	c9                   	leaveq 
    5663:	c3                   	retq   

0000000000005664 <_ZNSt6vectorI11bomb_structSaIS0_EE3endEv>:
    5664:	f3 0f 1e fa          	endbr64 
    5668:	55                   	push   %rbp
    5669:	48 89 e5             	mov    %rsp,%rbp
    566c:	48 83 ec 20          	sub    $0x20,%rsp
    5670:	48 89 7d e8          	mov    %rdi,-0x18(%rbp)
    5674:	64 48 8b 04 25 28 00 	mov    %fs:0x28,%rax
    567b:	00 00 
    567d:	48 89 45 f8          	mov    %rax,-0x8(%rbp)
    5681:	31 c0                	xor    %eax,%eax
    5683:	48 8b 45 e8          	mov    -0x18(%rbp),%rax
    5687:	48 8d 50 08          	lea    0x8(%rax),%rdx
    568b:	48 8d 45 f0          	lea    -0x10(%rbp),%rax
    568f:	48 89 d6             	mov    %rdx,%rsi
    5692:	48 89 c7             	mov    %rax,%rdi
    5695:	e8 78 0c 00 00       	callq  6312 <_ZN9__gnu_cxx17__normal_iteratorIP11bomb_structSt6vectorIS1_SaIS1_EEEC1ERKS2_>
    569a:	48 8b 45 f0          	mov    -0x10(%rbp),%rax
    569e:	48 8b 4d f8          	mov    -0x8(%rbp),%rcx
    56a2:	64 48 33 0c 25 28 00 	xor    %fs:0x28,%rcx
    56a9:	00 00 
    56ab:	74 05                	je     56b2 <_ZNSt6vectorI11bomb_structSaIS0_EE3endEv+0x4e>
    56ad:	e8 ce ce ff ff       	callq  2580 <__stack_chk_fail@plt>
    56b2:	c9                   	leaveq 
    56b3:	c3                   	retq   

00000000000056b4 <_ZN9__gnu_cxxneIP11bomb_structSt6vectorIS1_SaIS1_EEEEbRKNS_17__normal_iteratorIT_T0_EESB_>:
    56b4:	f3 0f 1e fa          	endbr64 
    56b8:	55                   	push   %rbp
    56b9:	48 89 e5             	mov    %rsp,%rbp
    56bc:	53                   	push   %rbx
    56bd:	48 83 ec 18          	sub    $0x18,%rsp
    56c1:	48 89 7d e8          	mov    %rdi,-0x18(%rbp)
    56c5:	48 89 75 e0          	mov    %rsi,-0x20(%rbp)
    56c9:	48 8b 45 e8          	mov    -0x18(%rbp),%rax
    56cd:	48 89 c7             	mov    %rax,%rdi
    56d0:	e8 5f 0c 00 00       	callq  6334 <_ZNK9__gnu_cxx17__normal_iteratorIP11bomb_structSt6vectorIS1_SaIS1_EEE4baseEv>
    56d5:	48 8b 18             	mov    (%rax),%rbx
    56d8:	48 8b 45 e0          	mov    -0x20(%rbp),%rax
    56dc:	48 89 c7             	mov    %rax,%rdi
    56df:	e8 50 0c 00 00       	callq  6334 <_ZNK9__gnu_cxx17__normal_iteratorIP11bomb_structSt6vectorIS1_SaIS1_EEE4baseEv>
    56e4:	48 8b 00             	mov    (%rax),%rax
    56e7:	48 39 c3             	cmp    %rax,%rbx
    56ea:	0f 95 c0             	setne  %al
    56ed:	48 83 c4 18          	add    $0x18,%rsp
    56f1:	5b                   	pop    %rbx
    56f2:	5d                   	pop    %rbp
    56f3:	c3                   	retq   

00000000000056f4 <_ZN9__gnu_cxx17__normal_iteratorIP11bomb_structSt6vectorIS1_SaIS1_EEEppEi>:
    56f4:	f3 0f 1e fa          	endbr64 
    56f8:	55                   	push   %rbp
    56f9:	48 89 e5             	mov    %rsp,%rbp
    56fc:	48 83 ec 30          	sub    $0x30,%rsp
    5700:	48 89 7d d8          	mov    %rdi,-0x28(%rbp)
    5704:	89 75 d4             	mov    %esi,-0x2c(%rbp)
    5707:	64 48 8b 04 25 28 00 	mov    %fs:0x28,%rax
    570e:	00 00 
    5710:	48 89 45 f8          	mov    %rax,-0x8(%rbp)
    5714:	31 c0                	xor    %eax,%eax
    5716:	48 8b 45 d8          	mov    -0x28(%rbp),%rax
    571a:	48 8b 00             	mov    (%rax),%rax
    571d:	48 8d 48 28          	lea    0x28(%rax),%rcx
    5721:	48 8b 55 d8          	mov    -0x28(%rbp),%rdx
    5725:	48 89 0a             	mov    %rcx,(%rdx)
    5728:	48 89 45 e8          	mov    %rax,-0x18(%rbp)
    572c:	48 8d 55 e8          	lea    -0x18(%rbp),%rdx
    5730:	48 8d 45 f0          	lea    -0x10(%rbp),%rax
    5734:	48 89 d6             	mov    %rdx,%rsi
    5737:	48 89 c7             	mov    %rax,%rdi
    573a:	e8 d3 0b 00 00       	callq  6312 <_ZN9__gnu_cxx17__normal_iteratorIP11bomb_structSt6vectorIS1_SaIS1_EEEC1ERKS2_>
    573f:	48 8b 45 f0          	mov    -0x10(%rbp),%rax
    5743:	48 8b 4d f8          	mov    -0x8(%rbp),%rcx
    5747:	64 48 33 0c 25 28 00 	xor    %fs:0x28,%rcx
    574e:	00 00 
    5750:	74 05                	je     5757 <_ZN9__gnu_cxx17__normal_iteratorIP11bomb_structSt6vectorIS1_SaIS1_EEEppEi+0x63>
    5752:	e8 29 ce ff ff       	callq  2580 <__stack_chk_fail@plt>
    5757:	c9                   	leaveq 
    5758:	c3                   	retq   
    5759:	90                   	nop

000000000000575a <_ZNK9__gnu_cxx17__normal_iteratorIP11bomb_structSt6vectorIS1_SaIS1_EEEdeEv>:
    575a:	f3 0f 1e fa          	endbr64 
    575e:	55                   	push   %rbp
    575f:	48 89 e5             	mov    %rsp,%rbp
    5762:	48 89 7d f8          	mov    %rdi,-0x8(%rbp)
    5766:	48 8b 45 f8          	mov    -0x8(%rbp),%rax
    576a:	48 8b 00             	mov    (%rax),%rax
    576d:	5d                   	pop    %rbp
    576e:	c3                   	retq   
    576f:	90                   	nop

0000000000005770 <_ZN9__gnu_cxx17__normal_iteratorIPK11bomb_structSt6vectorIS1_SaIS1_EEEC1IPS1_EERKNS0_IT_NS_11__enable_ifIXsrSt10__are_sameISA_S9_E7__valueES6_E6__typeEEE>:
    5770:	f3 0f 1e fa          	endbr64 
    5774:	55                   	push   %rbp
    5775:	48 89 e5             	mov    %rsp,%rbp
    5778:	48 83 ec 10          	sub    $0x10,%rsp
    577c:	48 89 7d f8          	mov    %rdi,-0x8(%rbp)
    5780:	48 89 75 f0          	mov    %rsi,-0x10(%rbp)
    5784:	48 8b 45 f0          	mov    -0x10(%rbp),%rax
    5788:	48 89 c7             	mov    %rax,%rdi
    578b:	e8 a4 0b 00 00       	callq  6334 <_ZNK9__gnu_cxx17__normal_iteratorIP11bomb_structSt6vectorIS1_SaIS1_EEE4baseEv>
    5790:	48 8b 10             	mov    (%rax),%rdx
    5793:	48 8b 45 f8          	mov    -0x8(%rbp),%rax
    5797:	48 89 10             	mov    %rdx,(%rax)
    579a:	90                   	nop
    579b:	c9                   	leaveq 
    579c:	c3                   	retq   
    579d:	90                   	nop

000000000000579e <_ZNSt6vectorI11bomb_structSaIS0_EE5eraseEN9__gnu_cxx17__normal_iteratorIPKS0_S2_EE>:
    579e:	f3 0f 1e fa          	endbr64 
    57a2:	55                   	push   %rbp
    57a3:	48 89 e5             	mov    %rsp,%rbp
    57a6:	53                   	push   %rbx
    57a7:	48 83 ec 38          	sub    $0x38,%rsp
    57ab:	48 89 7d c8          	mov    %rdi,-0x38(%rbp)
    57af:	48 89 75 c0          	mov    %rsi,-0x40(%rbp)
    57b3:	64 48 8b 04 25 28 00 	mov    %fs:0x28,%rax
    57ba:	00 00 
    57bc:	48 89 45 e8          	mov    %rax,-0x18(%rbp)
    57c0:	31 c0                	xor    %eax,%eax
    57c2:	48 8b 45 c8          	mov    -0x38(%rbp),%rax
    57c6:	48 89 c7             	mov    %rax,%rdi
    57c9:	e8 78 0b 00 00       	callq  6346 <_ZNKSt6vectorI11bomb_structSaIS0_EE6cbeginEv>
    57ce:	48 89 45 e0          	mov    %rax,-0x20(%rbp)
    57d2:	48 8d 55 e0          	lea    -0x20(%rbp),%rdx
    57d6:	48 8d 45 c0          	lea    -0x40(%rbp),%rax
    57da:	48 89 d6             	mov    %rdx,%rsi
    57dd:	48 89 c7             	mov    %rax,%rdi
    57e0:	e8 b8 0b 00 00       	callq  639d <_ZN9__gnu_cxxmiIPK11bomb_structSt6vectorIS1_SaIS1_EEEENS_17__normal_iteratorIT_T0_E15difference_typeERKSA_SD_>
    57e5:	48 89 c3             	mov    %rax,%rbx
    57e8:	48 8b 45 c8          	mov    -0x38(%rbp),%rax
    57ec:	48 89 c7             	mov    %rax,%rdi
    57ef:	e8 24 fe ff ff       	callq  5618 <_ZNSt6vectorI11bomb_structSaIS0_EE5beginEv>
    57f4:	48 89 45 d8          	mov    %rax,-0x28(%rbp)
    57f8:	48 8d 45 d8          	lea    -0x28(%rbp),%rax
    57fc:	48 89 de             	mov    %rbx,%rsi
    57ff:	48 89 c7             	mov    %rax,%rdi
    5802:	e8 eb 0b 00 00       	callq  63f2 <_ZNK9__gnu_cxx17__normal_iteratorIP11bomb_structSt6vectorIS1_SaIS1_EEEplEl>
    5807:	48 89 c2             	mov    %rax,%rdx
    580a:	48 8b 45 c8          	mov    -0x38(%rbp),%rax
    580e:	48 89 d6             	mov    %rdx,%rsi
    5811:	48 89 c7             	mov    %rax,%rdi
    5814:	e8 49 0c 00 00       	callq  6462 <_ZNSt6vectorI11bomb_structSaIS0_EE8_M_eraseEN9__gnu_cxx17__normal_iteratorIPS0_S2_EE>
    5819:	48 8b 4d e8          	mov    -0x18(%rbp),%rcx
    581d:	64 48 33 0c 25 28 00 	xor    %fs:0x28,%rcx
    5824:	00 00 
    5826:	74 05                	je     582d <_ZNSt6vectorI11bomb_structSaIS0_EE5eraseEN9__gnu_cxx17__normal_iteratorIPKS0_S2_EE+0x8f>
    5828:	e8 53 cd ff ff       	callq  2580 <__stack_chk_fail@plt>
    582d:	48 83 c4 38          	add    $0x38,%rsp
    5831:	5b                   	pop    %rbx
    5832:	5d                   	pop    %rbp
    5833:	c3                   	retq   

0000000000005834 <_ZNSt6vectorI11bomber_dataSaIS0_EE5beginEv>:
    5834:	f3 0f 1e fa          	endbr64 
    5838:	55                   	push   %rbp
    5839:	48 89 e5             	mov    %rsp,%rbp
    583c:	48 83 ec 20          	sub    $0x20,%rsp
    5840:	48 89 7d e8          	mov    %rdi,-0x18(%rbp)
    5844:	64 48 8b 04 25 28 00 	mov    %fs:0x28,%rax
    584b:	00 00 
    584d:	48 89 45 f8          	mov    %rax,-0x8(%rbp)
    5851:	31 c0                	xor    %eax,%eax
    5853:	48 8b 55 e8          	mov    -0x18(%rbp),%rdx
    5857:	48 8d 45 f0          	lea    -0x10(%rbp),%rax
    585b:	48 89 d6             	mov    %rdx,%rsi
    585e:	48 89 c7             	mov    %rax,%rdi
    5861:	e8 dc 0c 00 00       	callq  6542 <_ZN9__gnu_cxx17__normal_iteratorIP11bomber_dataSt6vectorIS1_SaIS1_EEEC1ERKS2_>
    5866:	48 8b 45 f0          	mov    -0x10(%rbp),%rax
    586a:	48 8b 4d f8          	mov    -0x8(%rbp),%rcx
    586e:	64 48 33 0c 25 28 00 	xor    %fs:0x28,%rcx
    5875:	00 00 
    5877:	74 05                	je     587e <_ZNSt6vectorI11bomber_dataSaIS0_EE5beginEv+0x4a>
    5879:	e8 02 cd ff ff       	callq  2580 <__stack_chk_fail@plt>
    587e:	c9                   	leaveq 
    587f:	c3                   	retq   

0000000000005880 <_ZNSt6vectorI11bomber_dataSaIS0_EE3endEv>:
    5880:	f3 0f 1e fa          	endbr64 
    5884:	55                   	push   %rbp
    5885:	48 89 e5             	mov    %rsp,%rbp
    5888:	48 83 ec 20          	sub    $0x20,%rsp
    588c:	48 89 7d e8          	mov    %rdi,-0x18(%rbp)
    5890:	64 48 8b 04 25 28 00 	mov    %fs:0x28,%rax
    5897:	00 00 
    5899:	48 89 45 f8          	mov    %rax,-0x8(%rbp)
    589d:	31 c0                	xor    %eax,%eax
    589f:	48 8b 45 e8          	mov    -0x18(%rbp),%rax
    58a3:	48 8d 50 08          	lea    0x8(%rax),%rdx
    58a7:	48 8d 45 f0          	lea    -0x10(%rbp),%rax
    58ab:	48 89 d6             	mov    %rdx,%rsi
    58ae:	48 89 c7             	mov    %rax,%rdi
    58b1:	e8 8c 0c 00 00       	callq  6542 <_ZN9__gnu_cxx17__normal_iteratorIP11bomber_dataSt6vectorIS1_SaIS1_EEEC1ERKS2_>
    58b6:	48 8b 45 f0          	mov    -0x10(%rbp),%rax
    58ba:	48 8b 4d f8          	mov    -0x8(%rbp),%rcx
    58be:	64 48 33 0c 25 28 00 	xor    %fs:0x28,%rcx
    58c5:	00 00 
    58c7:	74 05                	je     58ce <_ZNSt6vectorI11bomber_dataSaIS0_EE3endEv+0x4e>
    58c9:	e8 b2 cc ff ff       	callq  2580 <__stack_chk_fail@plt>
    58ce:	c9                   	leaveq 
    58cf:	c3                   	retq   

00000000000058d0 <_ZN9__gnu_cxxneIP11bomber_dataSt6vectorIS1_SaIS1_EEEEbRKNS_17__normal_iteratorIT_T0_EESB_>:
    58d0:	f3 0f 1e fa          	endbr64 
    58d4:	55                   	push   %rbp
    58d5:	48 89 e5             	mov    %rsp,%rbp
    58d8:	53                   	push   %rbx
    58d9:	48 83 ec 18          	sub    $0x18,%rsp
    58dd:	48 89 7d e8          	mov    %rdi,-0x18(%rbp)
    58e1:	48 89 75 e0          	mov    %rsi,-0x20(%rbp)
    58e5:	48 8b 45 e8          	mov    -0x18(%rbp),%rax
    58e9:	48 89 c7             	mov    %rax,%rdi
    58ec:	e8 73 0c 00 00       	callq  6564 <_ZNK9__gnu_cxx17__normal_iteratorIP11bomber_dataSt6vectorIS1_SaIS1_EEE4baseEv>
    58f1:	48 8b 18             	mov    (%rax),%rbx
    58f4:	48 8b 45 e0          	mov    -0x20(%rbp),%rax
    58f8:	48 89 c7             	mov    %rax,%rdi
    58fb:	e8 64 0c 00 00       	callq  6564 <_ZNK9__gnu_cxx17__normal_iteratorIP11bomber_dataSt6vectorIS1_SaIS1_EEE4baseEv>
    5900:	48 8b 00             	mov    (%rax),%rax
    5903:	48 39 c3             	cmp    %rax,%rbx
    5906:	0f 95 c0             	setne  %al
    5909:	48 83 c4 18          	add    $0x18,%rsp
    590d:	5b                   	pop    %rbx
    590e:	5d                   	pop    %rbp
    590f:	c3                   	retq   

0000000000005910 <_ZN9__gnu_cxx17__normal_iteratorIP11bomber_dataSt6vectorIS1_SaIS1_EEEppEi>:
    5910:	f3 0f 1e fa          	endbr64 
    5914:	55                   	push   %rbp
    5915:	48 89 e5             	mov    %rsp,%rbp
    5918:	48 83 ec 30          	sub    $0x30,%rsp
    591c:	48 89 7d d8          	mov    %rdi,-0x28(%rbp)
    5920:	89 75 d4             	mov    %esi,-0x2c(%rbp)
    5923:	64 48 8b 04 25 28 00 	mov    %fs:0x28,%rax
    592a:	00 00 
    592c:	48 89 45 f8          	mov    %rax,-0x8(%rbp)
    5930:	31 c0                	xor    %eax,%eax
    5932:	48 8b 45 d8          	mov    -0x28(%rbp),%rax
    5936:	48 8b 00             	mov    (%rax),%rax
    5939:	48 8d 48 20          	lea    0x20(%rax),%rcx
    593d:	48 8b 55 d8          	mov    -0x28(%rbp),%rdx
    5941:	48 89 0a             	mov    %rcx,(%rdx)
    5944:	48 89 45 e8          	mov    %rax,-0x18(%rbp)
    5948:	48 8d 55 e8          	lea    -0x18(%rbp),%rdx
    594c:	48 8d 45 f0          	lea    -0x10(%rbp),%rax
    5950:	48 89 d6             	mov    %rdx,%rsi
    5953:	48 89 c7             	mov    %rax,%rdi
    5956:	e8 e7 0b 00 00       	callq  6542 <_ZN9__gnu_cxx17__normal_iteratorIP11bomber_dataSt6vectorIS1_SaIS1_EEEC1ERKS2_>
    595b:	48 8b 45 f0          	mov    -0x10(%rbp),%rax
    595f:	48 8b 4d f8          	mov    -0x8(%rbp),%rcx
    5963:	64 48 33 0c 25 28 00 	xor    %fs:0x28,%rcx
    596a:	00 00 
    596c:	74 05                	je     5973 <_ZN9__gnu_cxx17__normal_iteratorIP11bomber_dataSt6vectorIS1_SaIS1_EEEppEi+0x63>
    596e:	e8 0d cc ff ff       	callq  2580 <__stack_chk_fail@plt>
    5973:	c9                   	leaveq 
    5974:	c3                   	retq   
    5975:	90                   	nop

0000000000005976 <_ZNK9__gnu_cxx17__normal_iteratorIP11bomber_dataSt6vectorIS1_SaIS1_EEEdeEv>:
    5976:	f3 0f 1e fa          	endbr64 
    597a:	55                   	push   %rbp
    597b:	48 89 e5             	mov    %rsp,%rbp
    597e:	48 89 7d f8          	mov    %rdi,-0x8(%rbp)
    5982:	48 8b 45 f8          	mov    -0x8(%rbp),%rax
    5986:	48 8b 00             	mov    (%rax),%rax
    5989:	5d                   	pop    %rbp
    598a:	c3                   	retq   
    598b:	90                   	nop

000000000000598c <_ZN9__gnu_cxx17__normal_iteratorIPK11bomber_dataSt6vectorIS1_SaIS1_EEEC1IPS1_EERKNS0_IT_NS_11__enable_ifIXsrSt10__are_sameISA_S9_E7__valueES6_E6__typeEEE>:
    598c:	f3 0f 1e fa          	endbr64 
    5990:	55                   	push   %rbp
    5991:	48 89 e5             	mov    %rsp,%rbp
    5994:	48 83 ec 10          	sub    $0x10,%rsp
    5998:	48 89 7d f8          	mov    %rdi,-0x8(%rbp)
    599c:	48 89 75 f0          	mov    %rsi,-0x10(%rbp)
    59a0:	48 8b 45 f0          	mov    -0x10(%rbp),%rax
    59a4:	48 89 c7             	mov    %rax,%rdi
    59a7:	e8 b8 0b 00 00       	callq  6564 <_ZNK9__gnu_cxx17__normal_iteratorIP11bomber_dataSt6vectorIS1_SaIS1_EEE4baseEv>
    59ac:	48 8b 10             	mov    (%rax),%rdx
    59af:	48 8b 45 f8          	mov    -0x8(%rbp),%rax
    59b3:	48 89 10             	mov    %rdx,(%rax)
    59b6:	90                   	nop
    59b7:	c9                   	leaveq 
    59b8:	c3                   	retq   
    59b9:	90                   	nop

00000000000059ba <_ZNSt6vectorI11bomber_dataSaIS0_EE5eraseEN9__gnu_cxx17__normal_iteratorIPKS0_S2_EE>:
    59ba:	f3 0f 1e fa          	endbr64 
    59be:	55                   	push   %rbp
    59bf:	48 89 e5             	mov    %rsp,%rbp
    59c2:	53                   	push   %rbx
    59c3:	48 83 ec 38          	sub    $0x38,%rsp
    59c7:	48 89 7d c8          	mov    %rdi,-0x38(%rbp)
    59cb:	48 89 75 c0          	mov    %rsi,-0x40(%rbp)
    59cf:	64 48 8b 04 25 28 00 	mov    %fs:0x28,%rax
    59d6:	00 00 
    59d8:	48 89 45 e8          	mov    %rax,-0x18(%rbp)
    59dc:	31 c0                	xor    %eax,%eax
    59de:	48 8b 45 c8          	mov    -0x38(%rbp),%rax
    59e2:	48 89 c7             	mov    %rax,%rdi
    59e5:	e8 8c 0b 00 00       	callq  6576 <_ZNKSt6vectorI11bomber_dataSaIS0_EE6cbeginEv>
    59ea:	48 89 45 e0          	mov    %rax,-0x20(%rbp)
    59ee:	48 8d 55 e0          	lea    -0x20(%rbp),%rdx
    59f2:	48 8d 45 c0          	lea    -0x40(%rbp),%rax
    59f6:	48 89 d6             	mov    %rdx,%rsi
    59f9:	48 89 c7             	mov    %rax,%rdi
    59fc:	e8 cc 0b 00 00       	callq  65cd <_ZN9__gnu_cxxmiIPK11bomber_dataSt6vectorIS1_SaIS1_EEEENS_17__normal_iteratorIT_T0_E15difference_typeERKSA_SD_>
    5a01:	48 89 c3             	mov    %rax,%rbx
    5a04:	48 8b 45 c8          	mov    -0x38(%rbp),%rax
    5a08:	48 89 c7             	mov    %rax,%rdi
    5a0b:	e8 24 fe ff ff       	callq  5834 <_ZNSt6vectorI11bomber_dataSaIS0_EE5beginEv>
    5a10:	48 89 45 d8          	mov    %rax,-0x28(%rbp)
    5a14:	48 8d 45 d8          	lea    -0x28(%rbp),%rax
    5a18:	48 89 de             	mov    %rbx,%rsi
    5a1b:	48 89 c7             	mov    %rax,%rdi
    5a1e:	e8 ef 0b 00 00       	callq  6612 <_ZNK9__gnu_cxx17__normal_iteratorIP11bomber_dataSt6vectorIS1_SaIS1_EEEplEl>
    5a23:	48 89 c2             	mov    %rax,%rdx
    5a26:	48 8b 45 c8          	mov    -0x38(%rbp),%rax
    5a2a:	48 89 d6             	mov    %rdx,%rsi
    5a2d:	48 89 c7             	mov    %rax,%rdi
    5a30:	e8 43 0c 00 00       	callq  6678 <_ZNSt6vectorI11bomber_dataSaIS0_EE8_M_eraseEN9__gnu_cxx17__normal_iteratorIPS0_S2_EE>
    5a35:	48 8b 4d e8          	mov    -0x18(%rbp),%rcx
    5a39:	64 48 33 0c 25 28 00 	xor    %fs:0x28,%rcx
    5a40:	00 00 
    5a42:	74 05                	je     5a49 <_ZNSt6vectorI11bomber_dataSaIS0_EE5eraseEN9__gnu_cxx17__normal_iteratorIPKS0_S2_EE+0x8f>
    5a44:	e8 37 cb ff ff       	callq  2580 <__stack_chk_fail@plt>
    5a49:	48 83 c4 38          	add    $0x38,%rsp
    5a4d:	5b                   	pop    %rbx
    5a4e:	5d                   	pop    %rbp
    5a4f:	c3                   	retq   

0000000000005a50 <_ZNSt6vectorI11bomb_structSaIS0_EE9push_backERKS0_>:
    5a50:	f3 0f 1e fa          	endbr64 
    5a54:	55                   	push   %rbp
    5a55:	48 89 e5             	mov    %rsp,%rbp
    5a58:	48 83 ec 10          	sub    $0x10,%rsp
    5a5c:	48 89 7d f8          	mov    %rdi,-0x8(%rbp)
    5a60:	48 89 75 f0          	mov    %rsi,-0x10(%rbp)
    5a64:	48 8b 45 f8          	mov    -0x8(%rbp),%rax
    5a68:	48 8b 50 08          	mov    0x8(%rax),%rdx
    5a6c:	48 8b 45 f8          	mov    -0x8(%rbp),%rax
    5a70:	48 8b 40 10          	mov    0x10(%rax),%rax
    5a74:	48 39 c2             	cmp    %rax,%rdx
    5a77:	74 31                	je     5aaa <_ZNSt6vectorI11bomb_structSaIS0_EE9push_backERKS0_+0x5a>
    5a79:	48 8b 45 f8          	mov    -0x8(%rbp),%rax
    5a7d:	48 8b 48 08          	mov    0x8(%rax),%rcx
    5a81:	48 8b 45 f8          	mov    -0x8(%rbp),%rax
    5a85:	48 8b 55 f0          	mov    -0x10(%rbp),%rdx
    5a89:	48 89 ce             	mov    %rcx,%rsi
    5a8c:	48 89 c7             	mov    %rax,%rdi
    5a8f:	e8 c3 0c 00 00       	callq  6757 <_ZNSt16allocator_traitsISaI11bomb_structEE9constructIS0_JRKS0_EEEvRS1_PT_DpOT0_>
    5a94:	48 8b 45 f8          	mov    -0x8(%rbp),%rax
    5a98:	48 8b 40 08          	mov    0x8(%rax),%rax
    5a9c:	48 8d 50 28          	lea    0x28(%rax),%rdx
    5aa0:	48 8b 45 f8          	mov    -0x8(%rbp),%rax
    5aa4:	48 89 50 08          	mov    %rdx,0x8(%rax)
    5aa8:	eb 22                	jmp    5acc <_ZNSt6vectorI11bomb_structSaIS0_EE9push_backERKS0_+0x7c>
    5aaa:	48 8b 45 f8          	mov    -0x8(%rbp),%rax
    5aae:	48 89 c7             	mov    %rax,%rdi
    5ab1:	e8 ae fb ff ff       	callq  5664 <_ZNSt6vectorI11bomb_structSaIS0_EE3endEv>
    5ab6:	48 89 c1             	mov    %rax,%rcx
    5ab9:	48 8b 55 f0          	mov    -0x10(%rbp),%rdx
    5abd:	48 8b 45 f8          	mov    -0x8(%rbp),%rax
    5ac1:	48 89 ce             	mov    %rcx,%rsi
    5ac4:	48 89 c7             	mov    %rax,%rdi
    5ac7:	e8 0e 0d 00 00       	callq  67da <_ZNSt6vectorI11bomb_structSaIS0_EE17_M_realloc_insertIJRKS0_EEEvN9__gnu_cxx17__normal_iteratorIPS0_S2_EEDpOT_>
    5acc:	90                   	nop
    5acd:	c9                   	leaveq 
    5ace:	c3                   	retq   
    5acf:	90                   	nop

0000000000005ad0 <_ZNSt7__cxx1112basic_stringIcSt11char_traitsIcESaIcEEC1IPcvEET_S7_RKS3_>:
    5ad0:	f3 0f 1e fa          	endbr64 
    5ad4:	55                   	push   %rbp
    5ad5:	48 89 e5             	mov    %rsp,%rbp
    5ad8:	53                   	push   %rbx
    5ad9:	48 83 ec 28          	sub    $0x28,%rsp
    5add:	48 89 7d e8          	mov    %rdi,-0x18(%rbp)
    5ae1:	48 89 75 e0          	mov    %rsi,-0x20(%rbp)
    5ae5:	48 89 55 d8          	mov    %rdx,-0x28(%rbp)
    5ae9:	48 89 4d d0          	mov    %rcx,-0x30(%rbp)
    5aed:	48 8b 5d e8          	mov    -0x18(%rbp),%rbx
    5af1:	48 8b 45 e8          	mov    -0x18(%rbp),%rax
    5af5:	48 89 c7             	mov    %rax,%rdi
    5af8:	e8 c3 c9 ff ff       	callq  24c0 <_ZNSt7__cxx1112basic_stringIcSt11char_traitsIcESaIcEE13_M_local_dataEv@plt>
    5afd:	48 89 c1             	mov    %rax,%rcx
    5b00:	48 8b 45 d0          	mov    -0x30(%rbp),%rax
    5b04:	48 89 c2             	mov    %rax,%rdx
    5b07:	48 89 ce             	mov    %rcx,%rsi
    5b0a:	48 89 df             	mov    %rbx,%rdi
    5b0d:	e8 3e ca ff ff       	callq  2550 <_ZNSt7__cxx1112basic_stringIcSt11char_traitsIcESaIcEE12_Alloc_hiderC1EPcRKS3_@plt>
    5b12:	48 8b 55 d8          	mov    -0x28(%rbp),%rdx
    5b16:	48 8b 4d e0          	mov    -0x20(%rbp),%rcx
    5b1a:	48 8b 45 e8          	mov    -0x18(%rbp),%rax
    5b1e:	48 89 ce             	mov    %rcx,%rsi
    5b21:	48 89 c7             	mov    %rax,%rdi
    5b24:	e8 d9 0f 00 00       	callq  6b02 <_ZNSt7__cxx1112basic_stringIcSt11char_traitsIcESaIcEE12_M_constructIPcEEvT_S7_>
    5b29:	eb 1e                	jmp    5b49 <_ZNSt7__cxx1112basic_stringIcSt11char_traitsIcESaIcEEC1IPcvEET_S7_RKS3_+0x79>
    5b2b:	f3 0f 1e fa          	endbr64 
    5b2f:	48 89 c3             	mov    %rax,%rbx
    5b32:	48 8b 45 e8          	mov    -0x18(%rbp),%rax
    5b36:	48 89 c7             	mov    %rax,%rdi
    5b39:	e8 2c f5 ff ff       	callq  506a <_ZNSt7__cxx1112basic_stringIcSt11char_traitsIcESaIcEE12_Alloc_hiderD1Ev>
    5b3e:	48 89 d8             	mov    %rbx,%rax
    5b41:	48 89 c7             	mov    %rax,%rdi
    5b44:	e8 57 cb ff ff       	callq  26a0 <_Unwind_Resume@plt>
    5b49:	48 83 c4 28          	add    $0x28,%rsp
    5b4d:	5b                   	pop    %rbx
    5b4e:	5d                   	pop    %rbp
    5b4f:	c3                   	retq   

0000000000005b50 <_ZNSaISt6vectorIiSaIiEEEC1Ev>:
    5b50:	f3 0f 1e fa          	endbr64 
    5b54:	55                   	push   %rbp
    5b55:	48 89 e5             	mov    %rsp,%rbp
    5b58:	48 83 ec 10          	sub    $0x10,%rsp
    5b5c:	48 89 7d f8          	mov    %rdi,-0x8(%rbp)
    5b60:	48 8b 45 f8          	mov    -0x8(%rbp),%rax
    5b64:	48 89 c7             	mov    %rax,%rdi
    5b67:	e8 ec 0f 00 00       	callq  6b58 <_ZN9__gnu_cxx13new_allocatorISt6vectorIiSaIiEEEC1Ev>
    5b6c:	90                   	nop
    5b6d:	c9                   	leaveq 
    5b6e:	c3                   	retq   
    5b6f:	90                   	nop

0000000000005b70 <_ZNSt12_Vector_baseISt6vectorIiSaIiEESaIS2_EE17_Vector_impl_dataC1Ev>:
    5b70:	f3 0f 1e fa          	endbr64 
    5b74:	55                   	push   %rbp
    5b75:	48 89 e5             	mov    %rsp,%rbp
    5b78:	48 89 7d f8          	mov    %rdi,-0x8(%rbp)
    5b7c:	48 8b 45 f8          	mov    -0x8(%rbp),%rax
    5b80:	48 c7 00 00 00 00 00 	movq   $0x0,(%rax)
    5b87:	48 8b 45 f8          	mov    -0x8(%rbp),%rax
    5b8b:	48 c7 40 08 00 00 00 	movq   $0x0,0x8(%rax)
    5b92:	00 
    5b93:	48 8b 45 f8          	mov    -0x8(%rbp),%rax
    5b97:	48 c7 40 10 00 00 00 	movq   $0x0,0x10(%rax)
    5b9e:	00 
    5b9f:	90                   	nop
    5ba0:	5d                   	pop    %rbp
    5ba1:	c3                   	retq   

0000000000005ba2 <_ZN9__gnu_cxx13new_allocatorISt6vectorIiSaIiEEED1Ev>:
    5ba2:	f3 0f 1e fa          	endbr64 
    5ba6:	55                   	push   %rbp
    5ba7:	48 89 e5             	mov    %rsp,%rbp
    5baa:	48 89 7d f8          	mov    %rdi,-0x8(%rbp)
    5bae:	90                   	nop
    5baf:	5d                   	pop    %rbp
    5bb0:	c3                   	retq   
    5bb1:	90                   	nop

0000000000005bb2 <_ZNSt12_Vector_baseISt6vectorIiSaIiEESaIS2_EE13_M_deallocateEPS2_m>:
    5bb2:	f3 0f 1e fa          	endbr64 
    5bb6:	55                   	push   %rbp
    5bb7:	48 89 e5             	mov    %rsp,%rbp
    5bba:	48 83 ec 20          	sub    $0x20,%rsp
    5bbe:	48 89 7d f8          	mov    %rdi,-0x8(%rbp)
    5bc2:	48 89 75 f0          	mov    %rsi,-0x10(%rbp)
    5bc6:	48 89 55 e8          	mov    %rdx,-0x18(%rbp)
    5bca:	48 83 7d f0 00       	cmpq   $0x0,-0x10(%rbp)
    5bcf:	74 17                	je     5be8 <_ZNSt12_Vector_baseISt6vectorIiSaIiEESaIS2_EE13_M_deallocateEPS2_m+0x36>
    5bd1:	48 8b 45 f8          	mov    -0x8(%rbp),%rax
    5bd5:	48 8b 55 e8          	mov    -0x18(%rbp),%rdx
    5bd9:	48 8b 4d f0          	mov    -0x10(%rbp),%rcx
    5bdd:	48 89 ce             	mov    %rcx,%rsi
    5be0:	48 89 c7             	mov    %rax,%rdi
    5be3:	e8 7f 0f 00 00       	callq  6b67 <_ZNSt16allocator_traitsISaISt6vectorIiSaIiEEEE10deallocateERS3_PS2_m>
    5be8:	90                   	nop
    5be9:	c9                   	leaveq 
    5bea:	c3                   	retq   
    5beb:	90                   	nop

0000000000005bec <_ZNSt12_Vector_baseISt6vectorIiSaIiEESaIS2_EE19_M_get_Tp_allocatorEv>:
    5bec:	f3 0f 1e fa          	endbr64 
    5bf0:	55                   	push   %rbp
    5bf1:	48 89 e5             	mov    %rsp,%rbp
    5bf4:	48 89 7d f8          	mov    %rdi,-0x8(%rbp)
    5bf8:	48 8b 45 f8          	mov    -0x8(%rbp),%rax
    5bfc:	5d                   	pop    %rbp
    5bfd:	c3                   	retq   

0000000000005bfe <_ZSt8_DestroyIPSt6vectorIiSaIiEES2_EvT_S4_RSaIT0_E>:
    5bfe:	f3 0f 1e fa          	endbr64 
    5c02:	55                   	push   %rbp
    5c03:	48 89 e5             	mov    %rsp,%rbp
    5c06:	48 83 ec 20          	sub    $0x20,%rsp
    5c0a:	48 89 7d f8          	mov    %rdi,-0x8(%rbp)
    5c0e:	48 89 75 f0          	mov    %rsi,-0x10(%rbp)
    5c12:	48 89 55 e8          	mov    %rdx,-0x18(%rbp)
    5c16:	48 8b 55 f0          	mov    -0x10(%rbp),%rdx
    5c1a:	48 8b 45 f8          	mov    -0x8(%rbp),%rax
    5c1e:	48 89 d6             	mov    %rdx,%rsi
    5c21:	48 89 c7             	mov    %rax,%rdi
    5c24:	e8 70 0f 00 00       	callq  6b99 <_ZSt8_DestroyIPSt6vectorIiSaIiEEEvT_S4_>
    5c29:	90                   	nop
    5c2a:	c9                   	leaveq 
    5c2b:	c3                   	retq   

0000000000005c2c <_ZNSaI13obstacle_dataEC1Ev>:
    5c2c:	f3 0f 1e fa          	endbr64 
    5c30:	55                   	push   %rbp
    5c31:	48 89 e5             	mov    %rsp,%rbp
    5c34:	48 83 ec 10          	sub    $0x10,%rsp
    5c38:	48 89 7d f8          	mov    %rdi,-0x8(%rbp)
    5c3c:	48 8b 45 f8          	mov    -0x8(%rbp),%rax
    5c40:	48 89 c7             	mov    %rax,%rdi
    5c43:	e8 7c 0f 00 00       	callq  6bc4 <_ZN9__gnu_cxx13new_allocatorI13obstacle_dataEC1Ev>
    5c48:	90                   	nop
    5c49:	c9                   	leaveq 
    5c4a:	c3                   	retq   
    5c4b:	90                   	nop

0000000000005c4c <_ZNSt12_Vector_baseI13obstacle_dataSaIS0_EE17_Vector_impl_dataC1Ev>:
    5c4c:	f3 0f 1e fa          	endbr64 
    5c50:	55                   	push   %rbp
    5c51:	48 89 e5             	mov    %rsp,%rbp
    5c54:	48 89 7d f8          	mov    %rdi,-0x8(%rbp)
    5c58:	48 8b 45 f8          	mov    -0x8(%rbp),%rax
    5c5c:	48 c7 00 00 00 00 00 	movq   $0x0,(%rax)
    5c63:	48 8b 45 f8          	mov    -0x8(%rbp),%rax
    5c67:	48 c7 40 08 00 00 00 	movq   $0x0,0x8(%rax)
    5c6e:	00 
    5c6f:	48 8b 45 f8          	mov    -0x8(%rbp),%rax
    5c73:	48 c7 40 10 00 00 00 	movq   $0x0,0x10(%rax)
    5c7a:	00 
    5c7b:	90                   	nop
    5c7c:	5d                   	pop    %rbp
    5c7d:	c3                   	retq   

0000000000005c7e <_ZN9__gnu_cxx13new_allocatorI13obstacle_dataED1Ev>:
    5c7e:	f3 0f 1e fa          	endbr64 
    5c82:	55                   	push   %rbp
    5c83:	48 89 e5             	mov    %rsp,%rbp
    5c86:	48 89 7d f8          	mov    %rdi,-0x8(%rbp)
    5c8a:	90                   	nop
    5c8b:	5d                   	pop    %rbp
    5c8c:	c3                   	retq   
    5c8d:	90                   	nop

0000000000005c8e <_ZNSt12_Vector_baseI13obstacle_dataSaIS0_EE13_M_deallocateEPS0_m>:
    5c8e:	f3 0f 1e fa          	endbr64 
    5c92:	55                   	push   %rbp
    5c93:	48 89 e5             	mov    %rsp,%rbp
    5c96:	48 83 ec 20          	sub    $0x20,%rsp
    5c9a:	48 89 7d f8          	mov    %rdi,-0x8(%rbp)
    5c9e:	48 89 75 f0          	mov    %rsi,-0x10(%rbp)
    5ca2:	48 89 55 e8          	mov    %rdx,-0x18(%rbp)
    5ca6:	48 83 7d f0 00       	cmpq   $0x0,-0x10(%rbp)
    5cab:	74 17                	je     5cc4 <_ZNSt12_Vector_baseI13obstacle_dataSaIS0_EE13_M_deallocateEPS0_m+0x36>
    5cad:	48 8b 45 f8          	mov    -0x8(%rbp),%rax
    5cb1:	48 8b 55 e8          	mov    -0x18(%rbp),%rdx
    5cb5:	48 8b 4d f0          	mov    -0x10(%rbp),%rcx
    5cb9:	48 89 ce             	mov    %rcx,%rsi
    5cbc:	48 89 c7             	mov    %rax,%rdi
    5cbf:	e8 0f 0f 00 00       	callq  6bd3 <_ZNSt16allocator_traitsISaI13obstacle_dataEE10deallocateERS1_PS0_m>
    5cc4:	90                   	nop
    5cc5:	c9                   	leaveq 
    5cc6:	c3                   	retq   
    5cc7:	90                   	nop

0000000000005cc8 <_ZNSt12_Vector_baseI13obstacle_dataSaIS0_EE19_M_get_Tp_allocatorEv>:
    5cc8:	f3 0f 1e fa          	endbr64 
    5ccc:	55                   	push   %rbp
    5ccd:	48 89 e5             	mov    %rsp,%rbp
    5cd0:	48 89 7d f8          	mov    %rdi,-0x8(%rbp)
    5cd4:	48 8b 45 f8          	mov    -0x8(%rbp),%rax
    5cd8:	5d                   	pop    %rbp
    5cd9:	c3                   	retq   

0000000000005cda <_ZSt8_DestroyIP13obstacle_dataS0_EvT_S2_RSaIT0_E>:
    5cda:	f3 0f 1e fa          	endbr64 
    5cde:	55                   	push   %rbp
    5cdf:	48 89 e5             	mov    %rsp,%rbp
    5ce2:	48 83 ec 20          	sub    $0x20,%rsp
    5ce6:	48 89 7d f8          	mov    %rdi,-0x8(%rbp)
    5cea:	48 89 75 f0          	mov    %rsi,-0x10(%rbp)
    5cee:	48 89 55 e8          	mov    %rdx,-0x18(%rbp)
    5cf2:	48 8b 55 f0          	mov    -0x10(%rbp),%rdx
    5cf6:	48 8b 45 f8          	mov    -0x8(%rbp),%rax
    5cfa:	48 89 d6             	mov    %rdx,%rsi
    5cfd:	48 89 c7             	mov    %rax,%rdi
    5d00:	e8 00 0f 00 00       	callq  6c05 <_ZSt8_DestroyIP13obstacle_dataEvT_S2_>
    5d05:	90                   	nop
    5d06:	c9                   	leaveq 
    5d07:	c3                   	retq   

0000000000005d08 <_ZNSaI11bomber_dataEC1Ev>:
    5d08:	f3 0f 1e fa          	endbr64 
    5d0c:	55                   	push   %rbp
    5d0d:	48 89 e5             	mov    %rsp,%rbp
    5d10:	48 83 ec 10          	sub    $0x10,%rsp
    5d14:	48 89 7d f8          	mov    %rdi,-0x8(%rbp)
    5d18:	48 8b 45 f8          	mov    -0x8(%rbp),%rax
    5d1c:	48 89 c7             	mov    %rax,%rdi
    5d1f:	e8 0c 0f 00 00       	callq  6c30 <_ZN9__gnu_cxx13new_allocatorI11bomber_dataEC1Ev>
    5d24:	90                   	nop
    5d25:	c9                   	leaveq 
    5d26:	c3                   	retq   
    5d27:	90                   	nop

0000000000005d28 <_ZNSt12_Vector_baseI11bomber_dataSaIS0_EE17_Vector_impl_dataC1Ev>:
    5d28:	f3 0f 1e fa          	endbr64 
    5d2c:	55                   	push   %rbp
    5d2d:	48 89 e5             	mov    %rsp,%rbp
    5d30:	48 89 7d f8          	mov    %rdi,-0x8(%rbp)
    5d34:	48 8b 45 f8          	mov    -0x8(%rbp),%rax
    5d38:	48 c7 00 00 00 00 00 	movq   $0x0,(%rax)
    5d3f:	48 8b 45 f8          	mov    -0x8(%rbp),%rax
    5d43:	48 c7 40 08 00 00 00 	movq   $0x0,0x8(%rax)
    5d4a:	00 
    5d4b:	48 8b 45 f8          	mov    -0x8(%rbp),%rax
    5d4f:	48 c7 40 10 00 00 00 	movq   $0x0,0x10(%rax)
    5d56:	00 
    5d57:	90                   	nop
    5d58:	5d                   	pop    %rbp
    5d59:	c3                   	retq   

0000000000005d5a <_ZN9__gnu_cxx13new_allocatorI11bomber_dataED1Ev>:
    5d5a:	f3 0f 1e fa          	endbr64 
    5d5e:	55                   	push   %rbp
    5d5f:	48 89 e5             	mov    %rsp,%rbp
    5d62:	48 89 7d f8          	mov    %rdi,-0x8(%rbp)
    5d66:	90                   	nop
    5d67:	5d                   	pop    %rbp
    5d68:	c3                   	retq   
    5d69:	90                   	nop

0000000000005d6a <_ZNSt12_Vector_baseI11bomber_dataSaIS0_EE13_M_deallocateEPS0_m>:
    5d6a:	f3 0f 1e fa          	endbr64 
    5d6e:	55                   	push   %rbp
    5d6f:	48 89 e5             	mov    %rsp,%rbp
    5d72:	48 83 ec 20          	sub    $0x20,%rsp
    5d76:	48 89 7d f8          	mov    %rdi,-0x8(%rbp)
    5d7a:	48 89 75 f0          	mov    %rsi,-0x10(%rbp)
    5d7e:	48 89 55 e8          	mov    %rdx,-0x18(%rbp)
    5d82:	48 83 7d f0 00       	cmpq   $0x0,-0x10(%rbp)
    5d87:	74 17                	je     5da0 <_ZNSt12_Vector_baseI11bomber_dataSaIS0_EE13_M_deallocateEPS0_m+0x36>
    5d89:	48 8b 45 f8          	mov    -0x8(%rbp),%rax
    5d8d:	48 8b 55 e8          	mov    -0x18(%rbp),%rdx
    5d91:	48 8b 4d f0          	mov    -0x10(%rbp),%rcx
    5d95:	48 89 ce             	mov    %rcx,%rsi
    5d98:	48 89 c7             	mov    %rax,%rdi
    5d9b:	e8 9f 0e 00 00       	callq  6c3f <_ZNSt16allocator_traitsISaI11bomber_dataEE10deallocateERS1_PS0_m>
    5da0:	90                   	nop
    5da1:	c9                   	leaveq 
    5da2:	c3                   	retq   
    5da3:	90                   	nop

0000000000005da4 <_ZNSt12_Vector_baseI11bomber_dataSaIS0_EE19_M_get_Tp_allocatorEv>:
    5da4:	f3 0f 1e fa          	endbr64 
    5da8:	55                   	push   %rbp
    5da9:	48 89 e5             	mov    %rsp,%rbp
    5dac:	48 89 7d f8          	mov    %rdi,-0x8(%rbp)
    5db0:	48 8b 45 f8          	mov    -0x8(%rbp),%rax
    5db4:	5d                   	pop    %rbp
    5db5:	c3                   	retq   

0000000000005db6 <_ZSt8_DestroyIP11bomber_dataS0_EvT_S2_RSaIT0_E>:
    5db6:	f3 0f 1e fa          	endbr64 
    5dba:	55                   	push   %rbp
    5dbb:	48 89 e5             	mov    %rsp,%rbp
    5dbe:	48 83 ec 20          	sub    $0x20,%rsp
    5dc2:	48 89 7d f8          	mov    %rdi,-0x8(%rbp)
    5dc6:	48 89 75 f0          	mov    %rsi,-0x10(%rbp)
    5dca:	48 89 55 e8          	mov    %rdx,-0x18(%rbp)
    5dce:	48 8b 55 f0          	mov    -0x10(%rbp),%rdx
    5dd2:	48 8b 45 f8          	mov    -0x8(%rbp),%rax
    5dd6:	48 89 d6             	mov    %rdx,%rsi
    5dd9:	48 89 c7             	mov    %rax,%rdi
    5ddc:	e8 90 0e 00 00       	callq  6c71 <_ZSt8_DestroyIP11bomber_dataEvT_S2_>
    5de1:	90                   	nop
    5de2:	c9                   	leaveq 
    5de3:	c3                   	retq   

0000000000005de4 <_ZNSaI11bomb_structEC1Ev>:
    5de4:	f3 0f 1e fa          	endbr64 
    5de8:	55                   	push   %rbp
    5de9:	48 89 e5             	mov    %rsp,%rbp
    5dec:	48 83 ec 10          	sub    $0x10,%rsp
    5df0:	48 89 7d f8          	mov    %rdi,-0x8(%rbp)
    5df4:	48 8b 45 f8          	mov    -0x8(%rbp),%rax
    5df8:	48 89 c7             	mov    %rax,%rdi
    5dfb:	e8 9c 0e 00 00       	callq  6c9c <_ZN9__gnu_cxx13new_allocatorI11bomb_structEC1Ev>
    5e00:	90                   	nop
    5e01:	c9                   	leaveq 
    5e02:	c3                   	retq   
    5e03:	90                   	nop

0000000000005e04 <_ZNSt12_Vector_baseI11bomb_structSaIS0_EE17_Vector_impl_dataC1Ev>:
    5e04:	f3 0f 1e fa          	endbr64 
    5e08:	55                   	push   %rbp
    5e09:	48 89 e5             	mov    %rsp,%rbp
    5e0c:	48 89 7d f8          	mov    %rdi,-0x8(%rbp)
    5e10:	48 8b 45 f8          	mov    -0x8(%rbp),%rax
    5e14:	48 c7 00 00 00 00 00 	movq   $0x0,(%rax)
    5e1b:	48 8b 45 f8          	mov    -0x8(%rbp),%rax
    5e1f:	48 c7 40 08 00 00 00 	movq   $0x0,0x8(%rax)
    5e26:	00 
    5e27:	48 8b 45 f8          	mov    -0x8(%rbp),%rax
    5e2b:	48 c7 40 10 00 00 00 	movq   $0x0,0x10(%rax)
    5e32:	00 
    5e33:	90                   	nop
    5e34:	5d                   	pop    %rbp
    5e35:	c3                   	retq   

0000000000005e36 <_ZN9__gnu_cxx13new_allocatorI11bomb_structED1Ev>:
    5e36:	f3 0f 1e fa          	endbr64 
    5e3a:	55                   	push   %rbp
    5e3b:	48 89 e5             	mov    %rsp,%rbp
    5e3e:	48 89 7d f8          	mov    %rdi,-0x8(%rbp)
    5e42:	90                   	nop
    5e43:	5d                   	pop    %rbp
    5e44:	c3                   	retq   
    5e45:	90                   	nop

0000000000005e46 <_ZNSt12_Vector_baseI11bomb_structSaIS0_EE13_M_deallocateEPS0_m>:
    5e46:	f3 0f 1e fa          	endbr64 
    5e4a:	55                   	push   %rbp
    5e4b:	48 89 e5             	mov    %rsp,%rbp
    5e4e:	48 83 ec 20          	sub    $0x20,%rsp
    5e52:	48 89 7d f8          	mov    %rdi,-0x8(%rbp)
    5e56:	48 89 75 f0          	mov    %rsi,-0x10(%rbp)
    5e5a:	48 89 55 e8          	mov    %rdx,-0x18(%rbp)
    5e5e:	48 83 7d f0 00       	cmpq   $0x0,-0x10(%rbp)
    5e63:	74 17                	je     5e7c <_ZNSt12_Vector_baseI11bomb_structSaIS0_EE13_M_deallocateEPS0_m+0x36>
    5e65:	48 8b 45 f8          	mov    -0x8(%rbp),%rax
    5e69:	48 8b 55 e8          	mov    -0x18(%rbp),%rdx
    5e6d:	48 8b 4d f0          	mov    -0x10(%rbp),%rcx
    5e71:	48 89 ce             	mov    %rcx,%rsi
    5e74:	48 89 c7             	mov    %rax,%rdi
    5e77:	e8 2f 0e 00 00       	callq  6cab <_ZNSt16allocator_traitsISaI11bomb_structEE10deallocateERS1_PS0_m>
    5e7c:	90                   	nop
    5e7d:	c9                   	leaveq 
    5e7e:	c3                   	retq   
    5e7f:	90                   	nop

0000000000005e80 <_ZNSt12_Vector_baseI11bomb_structSaIS0_EE19_M_get_Tp_allocatorEv>:
    5e80:	f3 0f 1e fa          	endbr64 
    5e84:	55                   	push   %rbp
    5e85:	48 89 e5             	mov    %rsp,%rbp
    5e88:	48 89 7d f8          	mov    %rdi,-0x8(%rbp)
    5e8c:	48 8b 45 f8          	mov    -0x8(%rbp),%rax
    5e90:	5d                   	pop    %rbp
    5e91:	c3                   	retq   

0000000000005e92 <_ZSt8_DestroyIP11bomb_structS0_EvT_S2_RSaIT0_E>:
    5e92:	f3 0f 1e fa          	endbr64 
    5e96:	55                   	push   %rbp
    5e97:	48 89 e5             	mov    %rsp,%rbp
    5e9a:	48 83 ec 20          	sub    $0x20,%rsp
    5e9e:	48 89 7d f8          	mov    %rdi,-0x8(%rbp)
    5ea2:	48 89 75 f0          	mov    %rsi,-0x10(%rbp)
    5ea6:	48 89 55 e8          	mov    %rdx,-0x18(%rbp)
    5eaa:	48 8b 55 f0          	mov    -0x10(%rbp),%rdx
    5eae:	48 8b 45 f8          	mov    -0x8(%rbp),%rax
    5eb2:	48 89 d6             	mov    %rdx,%rsi
    5eb5:	48 89 c7             	mov    %rax,%rdi
    5eb8:	e8 20 0e 00 00       	callq  6cdd <_ZSt8_DestroyIP11bomb_structEvT_S2_>
    5ebd:	90                   	nop
    5ebe:	c9                   	leaveq 
    5ebf:	c3                   	retq   

0000000000005ec0 <_ZNSaIA2_iEC1Ev>:
    5ec0:	f3 0f 1e fa          	endbr64 
    5ec4:	55                   	push   %rbp
    5ec5:	48 89 e5             	mov    %rsp,%rbp
    5ec8:	48 83 ec 10          	sub    $0x10,%rsp
    5ecc:	48 89 7d f8          	mov    %rdi,-0x8(%rbp)
    5ed0:	48 8b 45 f8          	mov    -0x8(%rbp),%rax
    5ed4:	48 89 c7             	mov    %rax,%rdi
    5ed7:	e8 2c 0e 00 00       	callq  6d08 <_ZN9__gnu_cxx13new_allocatorIA2_iEC1Ev>
    5edc:	90                   	nop
    5edd:	c9                   	leaveq 
    5ede:	c3                   	retq   
    5edf:	90                   	nop

0000000000005ee0 <_ZNSt12_Vector_baseIA2_iSaIS0_EE17_Vector_impl_dataC1Ev>:
    5ee0:	f3 0f 1e fa          	endbr64 
    5ee4:	55                   	push   %rbp
    5ee5:	48 89 e5             	mov    %rsp,%rbp
    5ee8:	48 89 7d f8          	mov    %rdi,-0x8(%rbp)
    5eec:	48 8b 45 f8          	mov    -0x8(%rbp),%rax
    5ef0:	48 c7 00 00 00 00 00 	movq   $0x0,(%rax)
    5ef7:	48 8b 45 f8          	mov    -0x8(%rbp),%rax
    5efb:	48 c7 40 08 00 00 00 	movq   $0x0,0x8(%rax)
    5f02:	00 
    5f03:	48 8b 45 f8          	mov    -0x8(%rbp),%rax
    5f07:	48 c7 40 10 00 00 00 	movq   $0x0,0x10(%rax)
    5f0e:	00 
    5f0f:	90                   	nop
    5f10:	5d                   	pop    %rbp
    5f11:	c3                   	retq   

0000000000005f12 <_ZN9__gnu_cxx13new_allocatorIA2_iED1Ev>:
    5f12:	f3 0f 1e fa          	endbr64 
    5f16:	55                   	push   %rbp
    5f17:	48 89 e5             	mov    %rsp,%rbp
    5f1a:	48 89 7d f8          	mov    %rdi,-0x8(%rbp)
    5f1e:	90                   	nop
    5f1f:	5d                   	pop    %rbp
    5f20:	c3                   	retq   
    5f21:	90                   	nop

0000000000005f22 <_ZNSt12_Vector_baseIA2_iSaIS0_EE13_M_deallocateEPS0_m>:
    5f22:	f3 0f 1e fa          	endbr64 
    5f26:	55                   	push   %rbp
    5f27:	48 89 e5             	mov    %rsp,%rbp
    5f2a:	48 83 ec 20          	sub    $0x20,%rsp
    5f2e:	48 89 7d f8          	mov    %rdi,-0x8(%rbp)
    5f32:	48 89 75 f0          	mov    %rsi,-0x10(%rbp)
    5f36:	48 89 55 e8          	mov    %rdx,-0x18(%rbp)
    5f3a:	48 83 7d f0 00       	cmpq   $0x0,-0x10(%rbp)
    5f3f:	74 17                	je     5f58 <_ZNSt12_Vector_baseIA2_iSaIS0_EE13_M_deallocateEPS0_m+0x36>
    5f41:	48 8b 45 f8          	mov    -0x8(%rbp),%rax
    5f45:	48 8b 55 e8          	mov    -0x18(%rbp),%rdx
    5f49:	48 8b 4d f0          	mov    -0x10(%rbp),%rcx
    5f4d:	48 89 ce             	mov    %rcx,%rsi
    5f50:	48 89 c7             	mov    %rax,%rdi
    5f53:	e8 bf 0d 00 00       	callq  6d17 <_ZNSt16allocator_traitsISaIA2_iEE10deallocateERS1_PS0_m>
    5f58:	90                   	nop
    5f59:	c9                   	leaveq 
    5f5a:	c3                   	retq   
    5f5b:	90                   	nop

0000000000005f5c <_ZNSt12_Vector_baseIA2_iSaIS0_EE19_M_get_Tp_allocatorEv>:
    5f5c:	f3 0f 1e fa          	endbr64 
    5f60:	55                   	push   %rbp
    5f61:	48 89 e5             	mov    %rsp,%rbp
    5f64:	48 89 7d f8          	mov    %rdi,-0x8(%rbp)
    5f68:	48 8b 45 f8          	mov    -0x8(%rbp),%rax
    5f6c:	5d                   	pop    %rbp
    5f6d:	c3                   	retq   

0000000000005f6e <_ZSt8_DestroyIPA2_iS0_EvT_S2_RSaIT0_E>:
    5f6e:	f3 0f 1e fa          	endbr64 
    5f72:	55                   	push   %rbp
    5f73:	48 89 e5             	mov    %rsp,%rbp
    5f76:	48 83 ec 20          	sub    $0x20,%rsp
    5f7a:	48 89 7d f8          	mov    %rdi,-0x8(%rbp)
    5f7e:	48 89 75 f0          	mov    %rsi,-0x10(%rbp)
    5f82:	48 89 55 e8          	mov    %rdx,-0x18(%rbp)
    5f86:	48 8b 55 f0          	mov    -0x10(%rbp),%rdx
    5f8a:	48 8b 45 f8          	mov    -0x8(%rbp),%rax
    5f8e:	48 89 d6             	mov    %rdx,%rsi
    5f91:	48 89 c7             	mov    %rax,%rdi
    5f94:	e8 b0 0d 00 00       	callq  6d49 <_ZSt8_DestroyIPA2_iEvT_S2_>
    5f99:	90                   	nop
    5f9a:	c9                   	leaveq 
    5f9b:	c3                   	retq   

0000000000005f9c <_ZNSt16allocator_traitsISaI11bomber_dataEE9constructIS0_JRKS0_EEEvRS1_PT_DpOT0_>:
    5f9c:	f3 0f 1e fa          	endbr64 
    5fa0:	55                   	push   %rbp
    5fa1:	48 89 e5             	mov    %rsp,%rbp
    5fa4:	48 83 ec 20          	sub    $0x20,%rsp
    5fa8:	48 89 7d f8          	mov    %rdi,-0x8(%rbp)
    5fac:	48 89 75 f0          	mov    %rsi,-0x10(%rbp)
    5fb0:	48 89 55 e8          	mov    %rdx,-0x18(%rbp)
    5fb4:	48 8b 45 e8          	mov    -0x18(%rbp),%rax
    5fb8:	48 89 c7             	mov    %rax,%rdi
    5fbb:	e8 b3 0d 00 00       	callq  6d73 <_ZSt7forwardIRK11bomber_dataEOT_RNSt16remove_referenceIS3_E4typeE>
    5fc0:	48 89 c2             	mov    %rax,%rdx
    5fc3:	48 8b 4d f0          	mov    -0x10(%rbp),%rcx
    5fc7:	48 8b 45 f8          	mov    -0x8(%rbp),%rax
    5fcb:	48 89 ce             	mov    %rcx,%rsi
    5fce:	48 89 c7             	mov    %rax,%rdi
    5fd1:	e8 b0 0d 00 00       	callq  6d86 <_ZN9__gnu_cxx13new_allocatorI11bomber_dataE9constructIS1_JRKS1_EEEvPT_DpOT0_>
    5fd6:	90                   	nop
    5fd7:	c9                   	leaveq 
    5fd8:	c3                   	retq   

0000000000005fd9 <_ZNSt6vectorI11bomber_dataSaIS0_EE15_S_use_relocateEv>:
    5fd9:	f3 0f 1e fa          	endbr64 
    5fdd:	55                   	push   %rbp
    5fde:	48 89 e5             	mov    %rsp,%rbp
    5fe1:	48 83 ec 10          	sub    $0x10,%rsp
    5fe5:	64 48 8b 04 25 28 00 	mov    %fs:0x28,%rax
    5fec:	00 00 
    5fee:	48 89 45 f8          	mov    %rax,-0x8(%rbp)
    5ff2:	31 c0                	xor    %eax,%eax
    5ff4:	e8 16 00 00 00       	callq  600f <_ZNSt6vectorI11bomber_dataSaIS0_EE19_S_nothrow_relocateESt17integral_constantIbLb1EE>
    5ff9:	48 8b 55 f8          	mov    -0x8(%rbp),%rdx
    5ffd:	64 48 33 14 25 28 00 	xor    %fs:0x28,%rdx
    6004:	00 00 
    6006:	74 05                	je     600d <_ZNSt6vectorI11bomber_dataSaIS0_EE15_S_use_relocateEv+0x34>
    6008:	e8 73 c5 ff ff       	callq  2580 <__stack_chk_fail@plt>
    600d:	c9                   	leaveq 
    600e:	c3                   	retq   

000000000000600f <_ZNSt6vectorI11bomber_dataSaIS0_EE19_S_nothrow_relocateESt17integral_constantIbLb1EE>:
    600f:	f3 0f 1e fa          	endbr64 
    6013:	55                   	push   %rbp
    6014:	48 89 e5             	mov    %rsp,%rbp
    6017:	b8 01 00 00 00       	mov    $0x1,%eax
    601c:	5d                   	pop    %rbp
    601d:	c3                   	retq   

000000000000601e <_ZNSt6vectorI11bomber_dataSaIS0_EE17_M_realloc_insertIJRKS0_EEEvN9__gnu_cxx17__normal_iteratorIPS0_S2_EEDpOT_>:
    601e:	f3 0f 1e fa          	endbr64 
    6022:	55                   	push   %rbp
    6023:	48 89 e5             	mov    %rsp,%rbp
    6026:	53                   	push   %rbx
    6027:	48 83 ec 68          	sub    $0x68,%rsp
    602b:	48 89 7d a8          	mov    %rdi,-0x58(%rbp)
    602f:	48 89 75 a0          	mov    %rsi,-0x60(%rbp)
    6033:	48 89 55 98          	mov    %rdx,-0x68(%rbp)
    6037:	64 48 8b 04 25 28 00 	mov    %fs:0x28,%rax
    603e:	00 00 
    6040:	48 89 45 e8          	mov    %rax,-0x18(%rbp)
    6044:	31 c0                	xor    %eax,%eax
    6046:	48 8b 45 a8          	mov    -0x58(%rbp),%rax
    604a:	48 8d 15 ad 30 00 00 	lea    0x30ad(%rip),%rdx        # 90fe <_ZStL19piecewise_construct+0xf6>
    6051:	be 01 00 00 00       	mov    $0x1,%esi
    6056:	48 89 c7             	mov    %rax,%rdi
    6059:	e8 8a 0d 00 00       	callq  6de8 <_ZNKSt6vectorI11bomber_dataSaIS0_EE12_M_check_lenEmPKc>
    605e:	48 89 45 c0          	mov    %rax,-0x40(%rbp)
    6062:	48 8b 45 a8          	mov    -0x58(%rbp),%rax
    6066:	48 8b 00             	mov    (%rax),%rax
    6069:	48 89 45 c8          	mov    %rax,-0x38(%rbp)
    606d:	48 8b 45 a8          	mov    -0x58(%rbp),%rax
    6071:	48 8b 40 08          	mov    0x8(%rax),%rax
    6075:	48 89 45 d0          	mov    %rax,-0x30(%rbp)
    6079:	48 8b 45 a8          	mov    -0x58(%rbp),%rax
    607d:	48 89 c7             	mov    %rax,%rdi
    6080:	e8 af f7 ff ff       	callq  5834 <_ZNSt6vectorI11bomber_dataSaIS0_EE5beginEv>
    6085:	48 89 45 b0          	mov    %rax,-0x50(%rbp)
    6089:	48 8d 55 b0          	lea    -0x50(%rbp),%rdx
    608d:	48 8d 45 a0          	lea    -0x60(%rbp),%rax
    6091:	48 89 d6             	mov    %rdx,%rsi
    6094:	48 89 c7             	mov    %rax,%rdi
    6097:	e8 3c 0e 00 00       	callq  6ed8 <_ZN9__gnu_cxxmiIP11bomber_dataSt6vectorIS1_SaIS1_EEEENS_17__normal_iteratorIT_T0_E15difference_typeERKS9_SC_>
    609c:	48 89 45 d8          	mov    %rax,-0x28(%rbp)
    60a0:	48 8b 45 a8          	mov    -0x58(%rbp),%rax
    60a4:	48 8b 55 c0          	mov    -0x40(%rbp),%rdx
    60a8:	48 89 d6             	mov    %rdx,%rsi
    60ab:	48 89 c7             	mov    %rax,%rdi
    60ae:	e8 69 0e 00 00       	callq  6f1c <_ZNSt12_Vector_baseI11bomber_dataSaIS0_EE11_M_allocateEm>
    60b3:	48 89 45 e0          	mov    %rax,-0x20(%rbp)
    60b7:	48 8b 45 e0          	mov    -0x20(%rbp),%rax
    60bb:	48 89 45 b8          	mov    %rax,-0x48(%rbp)
    60bf:	48 8b 45 98          	mov    -0x68(%rbp),%rax
    60c3:	48 89 c7             	mov    %rax,%rdi
    60c6:	e8 a8 0c 00 00       	callq  6d73 <_ZSt7forwardIRK11bomber_dataEOT_RNSt16remove_referenceIS3_E4typeE>
    60cb:	48 89 c2             	mov    %rax,%rdx
    60ce:	48 8b 45 d8          	mov    -0x28(%rbp),%rax
    60d2:	48 c1 e0 05          	shl    $0x5,%rax
    60d6:	48 89 c1             	mov    %rax,%rcx
    60d9:	48 8b 45 e0          	mov    -0x20(%rbp),%rax
    60dd:	48 01 c1             	add    %rax,%rcx
    60e0:	48 8b 45 a8          	mov    -0x58(%rbp),%rax
    60e4:	48 89 ce             	mov    %rcx,%rsi
    60e7:	48 89 c7             	mov    %rax,%rdi
    60ea:	e8 ad fe ff ff       	callq  5f9c <_ZNSt16allocator_traitsISaI11bomber_dataEE9constructIS0_JRKS0_EEEvRS1_PT_DpOT0_>
    60ef:	48 c7 45 b8 00 00 00 	movq   $0x0,-0x48(%rbp)
    60f6:	00 
    60f7:	e8 dd fe ff ff       	callq  5fd9 <_ZNSt6vectorI11bomber_dataSaIS0_EE15_S_use_relocateEv>
    60fc:	84 c0                	test   %al,%al
    60fe:	74 71                	je     6171 <_ZNSt6vectorI11bomber_dataSaIS0_EE17_M_realloc_insertIJRKS0_EEEvN9__gnu_cxx17__normal_iteratorIPS0_S2_EEDpOT_+0x153>
    6100:	48 8b 45 a8          	mov    -0x58(%rbp),%rax
    6104:	48 89 c7             	mov    %rax,%rdi
    6107:	e8 98 fc ff ff       	callq  5da4 <_ZNSt12_Vector_baseI11bomber_dataSaIS0_EE19_M_get_Tp_allocatorEv>
    610c:	48 89 c3             	mov    %rax,%rbx
    610f:	48 8d 45 a0          	lea    -0x60(%rbp),%rax
    6113:	48 89 c7             	mov    %rax,%rdi
    6116:	e8 49 04 00 00       	callq  6564 <_ZNK9__gnu_cxx17__normal_iteratorIP11bomber_dataSt6vectorIS1_SaIS1_EEE4baseEv>
    611b:	48 8b 30             	mov    (%rax),%rsi
    611e:	48 8b 55 e0          	mov    -0x20(%rbp),%rdx
    6122:	48 8b 45 c8          	mov    -0x38(%rbp),%rax
    6126:	48 89 d9             	mov    %rbx,%rcx
    6129:	48 89 c7             	mov    %rax,%rdi
    612c:	e8 22 0e 00 00       	callq  6f53 <_ZNSt6vectorI11bomber_dataSaIS0_EE11_S_relocateEPS0_S3_S3_RS1_>
    6131:	48 89 45 b8          	mov    %rax,-0x48(%rbp)
    6135:	48 83 45 b8 20       	addq   $0x20,-0x48(%rbp)
    613a:	48 8b 45 a8          	mov    -0x58(%rbp),%rax
    613e:	48 89 c7             	mov    %rax,%rdi
    6141:	e8 5e fc ff ff       	callq  5da4 <_ZNSt12_Vector_baseI11bomber_dataSaIS0_EE19_M_get_Tp_allocatorEv>
    6146:	48 89 c3             	mov    %rax,%rbx
    6149:	48 8d 45 a0          	lea    -0x60(%rbp),%rax
    614d:	48 89 c7             	mov    %rax,%rdi
    6150:	e8 0f 04 00 00       	callq  6564 <_ZNK9__gnu_cxx17__normal_iteratorIP11bomber_dataSt6vectorIS1_SaIS1_EEE4baseEv>
    6155:	48 8b 00             	mov    (%rax),%rax
    6158:	48 8b 55 b8          	mov    -0x48(%rbp),%rdx
    615c:	48 8b 75 d0          	mov    -0x30(%rbp),%rsi
    6160:	48 89 d9             	mov    %rbx,%rcx
    6163:	48 89 c7             	mov    %rax,%rdi
    6166:	e8 e8 0d 00 00       	callq  6f53 <_ZNSt6vectorI11bomber_dataSaIS0_EE11_S_relocateEPS0_S3_S3_RS1_>
    616b:	48 89 45 b8          	mov    %rax,-0x48(%rbp)
    616f:	eb 6f                	jmp    61e0 <_ZNSt6vectorI11bomber_dataSaIS0_EE17_M_realloc_insertIJRKS0_EEEvN9__gnu_cxx17__normal_iteratorIPS0_S2_EEDpOT_+0x1c2>
    6171:	48 8b 45 a8          	mov    -0x58(%rbp),%rax
    6175:	48 89 c7             	mov    %rax,%rdi
    6178:	e8 27 fc ff ff       	callq  5da4 <_ZNSt12_Vector_baseI11bomber_dataSaIS0_EE19_M_get_Tp_allocatorEv>
    617d:	48 89 c3             	mov    %rax,%rbx
    6180:	48 8d 45 a0          	lea    -0x60(%rbp),%rax
    6184:	48 89 c7             	mov    %rax,%rdi
    6187:	e8 d8 03 00 00       	callq  6564 <_ZNK9__gnu_cxx17__normal_iteratorIP11bomber_dataSt6vectorIS1_SaIS1_EEE4baseEv>
    618c:	48 8b 30             	mov    (%rax),%rsi
    618f:	48 8b 55 e0          	mov    -0x20(%rbp),%rdx
    6193:	48 8b 45 c8          	mov    -0x38(%rbp),%rax
    6197:	48 89 d9             	mov    %rbx,%rcx
    619a:	48 89 c7             	mov    %rax,%rdi
    619d:	e8 0a 0e 00 00       	callq  6fac <_ZSt34__uninitialized_move_if_noexcept_aIP11bomber_dataS1_SaIS0_EET0_T_S4_S3_RT1_>
    61a2:	48 89 45 b8          	mov    %rax,-0x48(%rbp)
    61a6:	48 83 45 b8 20       	addq   $0x20,-0x48(%rbp)
    61ab:	48 8b 45 a8          	mov    -0x58(%rbp),%rax
    61af:	48 89 c7             	mov    %rax,%rdi
